CCS PCH C Compiler, Version 5.109, 62303               18-Mar-26 16:21

               Filename:   C:\Users\aidan\Documents\GitHub\DiFCS-Controller\test\main-adc-test.lst

               ROM used:   18156 bytes (28%)
                           Largest free fragment is 47378
               RAM used:   1500 (41%) at main() level
                           1588 (44%) worst case
               Stack used: 6 locations (4 in main + 2 for interrupts)
               Stack size: 31

*
00000:  NOP   
00002:  GOTO   43CC
*
00008:  MOVWF  04
0000A:  MOVFF  FD8,05
0000E:  MOVFF  FE0,06
00012:  MOVLB  0
00014:  MOVFF  FE9,0C
00018:  MOVFF  FEA,07
0001C:  MOVFF  FE1,08
00020:  MOVFF  FE2,09
00024:  MOVFF  FD9,0A
00028:  MOVFF  FDA,0B
0002C:  MOVFF  FF3,12
00030:  MOVFF  FF4,13
00034:  MOVFF  FFA,14
00038:  MOVFF  FF5,15
0003C:  MOVFF  FF6,16
00040:  MOVFF  FF7,17
00044:  MOVFF  00,0E
00048:  MOVFF  01,0F
0004C:  MOVFF  02,10
00050:  MOVFF  03,11
00054:  MOVLB  E
00056:  BTFSS  xC0.5
00058:  GOTO   0062
0005C:  BTFSC  xC8.5
0005E:  GOTO   00DA
00062:  BTFSS  xC1.0
00064:  GOTO   006E
00068:  BTFSC  xC9.0
0006A:  GOTO   024E
0006E:  MOVFF  0E,00
00072:  MOVFF  0F,01
00076:  MOVFF  10,02
0007A:  MOVFF  11,03
0007E:  MOVFF  0C,FE9
00082:  MOVFF  07,FEA
00086:  BSF    07.7
00088:  MOVFF  08,FE1
0008C:  MOVFF  09,FE2
00090:  MOVFF  0A,FD9
00094:  MOVFF  0B,FDA
00098:  MOVFF  12,FF3
0009C:  MOVFF  13,FF4
000A0:  MOVFF  14,FFA
000A4:  MOVFF  15,FF5
000A8:  MOVFF  16,FF6
000AC:  MOVFF  17,FF7
000B0:  MOVF   04,W
000B2:  MOVFF  06,FE0
000B6:  MOVFF  05,FD8
000BA:  RETFIE 0
.................... #include <main-adc-test.h>
.................... #include <18F46Q10.h>
.................... //////////// Standard Header file for the PIC18F46Q10 device ////////////////
.................... ///////////////////////////////////////////////////////////////////////////
.................... ////        (C) Copyright 1996, 2020 Custom Computer Services          ////
.................... //// This source code may only be used by licensed users of the CCS C  ////
.................... //// compiler.  This source code may only be distributed to other      ////
.................... //// licensed users of the CCS C compiler.  No other use, reproduction ////
.................... //// or distribution is permitted without written permission.          ////
.................... //// Derivative programs created using this software in object code    ////
.................... //// form are not restricted in any way.                               ////
.................... ///////////////////////////////////////////////////////////////////////////
.................... #device PIC18F46Q10
*
00648:  ADDWF  FE8,W
0064A:  CLRF   FF7
0064C:  RLCF   FF7,F
0064E:  ADDLW  63
00650:  MOVWF  FF6
00652:  MOVLW  06
00654:  ADDWFC FF7,F
00656:  TBLRD*-
00658:  MOVF   FF5,W
0065A:  MOVWF  FFA
0065C:  TBLRD*
0065E:  MOVF   FF5,W
00660:  MOVWF  FF9
00662:  DATA 12,06
00664:  DATA 1C,06
00666:  DATA 26,06
00668:  DATA 30,06
*
007F2:  MOVLB  6
007F4:  MOVF   x0C,W
007F6:  MULWF  x0E
007F8:  MOVFF  FF3,01
007FC:  MOVFF  FF4,00
00800:  MULWF  x0F
00802:  MOVF   FF3,W
00804:  ADDWF  00,F
00806:  MOVF   x0D,W
00808:  MULWF  x0E
0080A:  MOVF   FF3,W
0080C:  ADDWFC 00,W
0080E:  MOVWF  02
00810:  MOVLB  0
00812:  RETURN 0
00814:  MOVLB  6
00816:  MOVF   x10,W
00818:  CLRF   01
0081A:  SUBWF  x0F,W
0081C:  BC    0824
0081E:  MOVFF  60F,00
00822:  BRA    083C
00824:  CLRF   00
00826:  MOVLW  08
00828:  MOVWF  x11
0082A:  RLCF   x0F,F
0082C:  RLCF   00,F
0082E:  MOVF   x10,W
00830:  SUBWF  00,W
00832:  BTFSC  FD8.0
00834:  MOVWF  00
00836:  RLCF   01,F
00838:  DECFSZ x11,F
0083A:  BRA    082A
0083C:  MOVLB  0
0083E:  RETURN 0
*
00C68:  BTFSC  FD8.1
00C6A:  BRA    0C74
00C6C:  MOVLW  06
00C6E:  MOVWF  FEA
00C70:  MOVLW  0F
00C72:  MOVWF  FE9
00C74:  MOVLB  6
00C76:  MOVF   x0A,W
00C78:  XORWF  x0E,W
00C7A:  ANDLW  80
00C7C:  MOVWF  x14
00C7E:  BTFSS  x0A.7
00C80:  BRA    0C98
00C82:  COMF   x07,F
00C84:  COMF   x08,F
00C86:  COMF   x09,F
00C88:  COMF   x0A,F
00C8A:  INCF   x07,F
00C8C:  BTFSC  FD8.2
00C8E:  INCF   x08,F
00C90:  BTFSC  FD8.2
00C92:  INCF   x09,F
00C94:  BTFSC  FD8.2
00C96:  INCF   x0A,F
00C98:  BTFSS  x0E.7
00C9A:  BRA    0CB2
00C9C:  COMF   x0B,F
00C9E:  COMF   x0C,F
00CA0:  COMF   x0D,F
00CA2:  COMF   x0E,F
00CA4:  INCF   x0B,F
00CA6:  BTFSC  FD8.2
00CA8:  INCF   x0C,F
00CAA:  BTFSC  FD8.2
00CAC:  INCF   x0D,F
00CAE:  BTFSC  FD8.2
00CB0:  INCF   x0E,F
00CB2:  CLRF   00
00CB4:  CLRF   01
00CB6:  CLRF   02
00CB8:  CLRF   03
00CBA:  CLRF   x0F
00CBC:  CLRF   x10
00CBE:  CLRF   x11
00CC0:  CLRF   x12
00CC2:  MOVF   x0E,W
00CC4:  IORWF  x0D,W
00CC6:  IORWF  x0C,W
00CC8:  IORWF  x0B,W
00CCA:  BZ    0D24
00CCC:  MOVLW  20
00CCE:  MOVWF  x13
00CD0:  BCF    FD8.0
00CD2:  RLCF   x07,F
00CD4:  RLCF   x08,F
00CD6:  RLCF   x09,F
00CD8:  RLCF   x0A,F
00CDA:  RLCF   x0F,F
00CDC:  RLCF   x10,F
00CDE:  RLCF   x11,F
00CE0:  RLCF   x12,F
00CE2:  MOVF   x0E,W
00CE4:  SUBWF  x12,W
00CE6:  BNZ   0CF8
00CE8:  MOVF   x0D,W
00CEA:  SUBWF  x11,W
00CEC:  BNZ   0CF8
00CEE:  MOVF   x0C,W
00CF0:  SUBWF  x10,W
00CF2:  BNZ   0CF8
00CF4:  MOVF   x0B,W
00CF6:  SUBWF  x0F,W
00CF8:  BNC   0D18
00CFA:  MOVF   x0B,W
00CFC:  SUBWF  x0F,F
00CFE:  MOVF   x0C,W
00D00:  BTFSS  FD8.0
00D02:  INCFSZ x0C,W
00D04:  SUBWF  x10,F
00D06:  MOVF   x0D,W
00D08:  BTFSS  FD8.0
00D0A:  INCFSZ x0D,W
00D0C:  SUBWF  x11,F
00D0E:  MOVF   x0E,W
00D10:  BTFSS  FD8.0
00D12:  INCFSZ x0E,W
00D14:  SUBWF  x12,F
00D16:  BSF    FD8.0
00D18:  RLCF   00,F
00D1A:  RLCF   01,F
00D1C:  RLCF   02,F
00D1E:  RLCF   03,F
00D20:  DECFSZ x13,F
00D22:  BRA    0CD0
00D24:  BTFSS  x14.7
00D26:  BRA    0D3E
00D28:  COMF   00,F
00D2A:  COMF   01,F
00D2C:  COMF   02,F
00D2E:  COMF   03,F
00D30:  INCF   00,F
00D32:  BTFSC  FD8.2
00D34:  INCF   01,F
00D36:  BTFSC  FD8.2
00D38:  INCF   02,F
00D3A:  BTFSC  FD8.2
00D3C:  INCF   03,F
00D3E:  MOVFF  60F,FEF
00D42:  MOVFF  610,FEC
00D46:  MOVFF  611,FEC
00D4A:  MOVFF  612,FEC
00D4E:  MOVLB  0
00D50:  RETURN 0
*
012E0:  MOVLW  B6
012E2:  MOVWF  00
012E4:  CLRF   03
012E6:  CLRF   02
012E8:  CLRF   01
012EA:  MOVLB  5
012EC:  BCF    xEA.0
012EE:  BTFSS  xE9.7
012F0:  BRA    130A
012F2:  BSF    xEA.0
012F4:  COMF   xE6,F
012F6:  COMF   xE7,F
012F8:  COMF   xE8,F
012FA:  COMF   xE9,F
012FC:  INCF   xE6,F
012FE:  BNZ   130A
01300:  INCF   xE7,F
01302:  BNZ   130A
01304:  INCF   xE8,F
01306:  BTFSC  FD8.2
01308:  INCF   xE9,F
0130A:  MOVF   xE6,W
0130C:  IORWF  xE7,W
0130E:  IORWF  xE8,W
01310:  IORWF  xE9,W
01312:  BNZ   1318
01314:  CLRF   00
01316:  BRA    1336
01318:  BCF    FD8.0
0131A:  BTFSC  01.7
0131C:  BRA    1330
0131E:  RLCF   xE6,F
01320:  RLCF   xE7,F
01322:  RLCF   xE8,F
01324:  RLCF   xE9,F
01326:  RLCF   03,F
01328:  RLCF   02,F
0132A:  RLCF   01,F
0132C:  DECFSZ 00,F
0132E:  BRA    1318
01330:  BCF    01.7
01332:  BTFSC  xEA.0
01334:  BSF    01.7
01336:  MOVLB  0
01338:  RETURN 0
0133A:  MOVLB  6
0133C:  MOVF   x1C,W
0133E:  BTFSC  FD8.2
01340:  BRA    1424
01342:  MOVWF  00
01344:  MOVF   x20,W
01346:  BTFSC  FD8.2
01348:  BRA    1424
0134A:  ADDWF  00,F
0134C:  BNC   1356
0134E:  MOVLW  81
01350:  ADDWF  00,F
01352:  BC    1424
01354:  BRA    135E
01356:  MOVLW  7F
01358:  SUBWF  00,F
0135A:  BNC   1424
0135C:  BZ    1424
0135E:  MOVFF  61D,624
01362:  MOVF   x21,W
01364:  XORWF  x24,F
01366:  BSF    x1D.7
01368:  BSF    x21.7
0136A:  MOVF   x1F,W
0136C:  MULWF  x23
0136E:  MOVFF  FF4,626
01372:  MOVF   x1E,W
01374:  MULWF  x22
01376:  MOVFF  FF4,03
0137A:  MOVFF  FF3,625
0137E:  MULWF  x23
01380:  MOVF   FF3,W
01382:  ADDWF  x26,F
01384:  MOVF   FF4,W
01386:  ADDWFC x25,F
01388:  MOVLW  00
0138A:  ADDWFC 03,F
0138C:  MOVF   x1F,W
0138E:  MULWF  x22
01390:  MOVF   FF3,W
01392:  ADDWF  x26,F
01394:  MOVF   FF4,W
01396:  ADDWFC x25,F
01398:  MOVLW  00
0139A:  CLRF   02
0139C:  ADDWFC 03,F
0139E:  ADDWFC 02,F
013A0:  MOVF   x1D,W
013A2:  MULWF  x23
013A4:  MOVF   FF3,W
013A6:  ADDWF  x25,F
013A8:  MOVF   FF4,W
013AA:  ADDWFC 03,F
013AC:  MOVLW  00
013AE:  ADDWFC 02,F
013B0:  MOVF   x1D,W
013B2:  MULWF  x22
013B4:  MOVF   FF3,W
013B6:  ADDWF  03,F
013B8:  MOVF   FF4,W
013BA:  ADDWFC 02,F
013BC:  MOVLW  00
013BE:  CLRF   01
013C0:  ADDWFC 01,F
013C2:  MOVF   x1F,W
013C4:  MULWF  x21
013C6:  MOVF   FF3,W
013C8:  ADDWF  x25,F
013CA:  MOVF   FF4,W
013CC:  ADDWFC 03,F
013CE:  MOVLW  00
013D0:  ADDWFC 02,F
013D2:  ADDWFC 01,F
013D4:  MOVF   x1E,W
013D6:  MULWF  x21
013D8:  MOVF   FF3,W
013DA:  ADDWF  03,F
013DC:  MOVF   FF4,W
013DE:  ADDWFC 02,F
013E0:  MOVLW  00
013E2:  ADDWFC 01,F
013E4:  MOVF   x1D,W
013E6:  MULWF  x21
013E8:  MOVF   FF3,W
013EA:  ADDWF  02,F
013EC:  MOVF   FF4,W
013EE:  ADDWFC 01,F
013F0:  INCF   00,F
013F2:  BTFSC  01.7
013F4:  BRA    1400
013F6:  RLCF   x25,F
013F8:  RLCF   03,F
013FA:  RLCF   02,F
013FC:  RLCF   01,F
013FE:  DECF   00,F
01400:  MOVLW  00
01402:  BTFSS  x25.7
01404:  BRA    141A
01406:  INCF   03,F
01408:  ADDWFC 02,F
0140A:  ADDWFC 01,F
0140C:  MOVF   01,W
0140E:  BNZ   141A
01410:  MOVF   02,W
01412:  BNZ   141A
01414:  MOVF   03,W
01416:  BNZ   141A
01418:  INCF   00,F
0141A:  BTFSC  x24.7
0141C:  BSF    01.7
0141E:  BTFSS  x24.7
01420:  BCF    01.7
01422:  BRA    142C
01424:  CLRF   00
01426:  CLRF   01
01428:  CLRF   02
0142A:  CLRF   03
0142C:  MOVLB  0
0142E:  RETURN 0
01430:  MOVLW  80
01432:  BTFSS  FD8.1
01434:  BRA    143A
01436:  MOVLB  6
01438:  XORWF  x25,F
0143A:  MOVLB  6
0143C:  CLRF   x2A
0143E:  CLRF   x2B
01440:  MOVFF  621,629
01444:  MOVF   x25,W
01446:  XORWF  x29,F
01448:  MOVF   x20,W
0144A:  BTFSC  FD8.2
0144C:  BRA    160C
0144E:  MOVWF  x28
01450:  MOVWF  00
01452:  MOVF   x24,W
01454:  BTFSC  FD8.2
01456:  BRA    161E
01458:  SUBWF  x28,F
0145A:  BTFSC  FD8.2
0145C:  BRA    1564
0145E:  BNC   14DC
01460:  MOVFF  625,62E
01464:  BSF    x2E.7
01466:  MOVFF  626,62D
0146A:  MOVFF  627,62C
0146E:  CLRF   x2B
01470:  BCF    FD8.0
01472:  RRCF   x2E,F
01474:  RRCF   x2D,F
01476:  RRCF   x2C,F
01478:  RRCF   x2B,F
0147A:  DECFSZ x28,F
0147C:  BRA    146E
0147E:  BTFSS  x29.7
01480:  BRA    1488
01482:  BSF    x2A.0
01484:  BRA    1646
01486:  BCF    x2A.0
01488:  BCF    x28.0
0148A:  BSF    x2A.4
0148C:  MOVLW  06
0148E:  MOVWF  FEA
01490:  MOVLW  23
01492:  MOVWF  FE9
01494:  BRA    166C
01496:  BCF    x2A.4
01498:  BTFSC  x29.7
0149A:  BRA    14B0
0149C:  BTFSS  x28.0
0149E:  BRA    14C6
014A0:  RRCF   x2E,F
014A2:  RRCF   x2D,F
014A4:  RRCF   x2C,F
014A6:  RRCF   x2B,F
014A8:  INCF   00,F
014AA:  BTFSC  FD8.2
014AC:  BRA    163C
014AE:  BRA    14C6
014B0:  BTFSC  x2E.7
014B2:  BRA    14CC
014B4:  BCF    FD8.0
014B6:  RLCF   x2B,F
014B8:  RLCF   x2C,F
014BA:  RLCF   x2D,F
014BC:  RLCF   x2E,F
014BE:  DECF   00,F
014C0:  BTFSC  FD8.2
014C2:  BRA    163C
014C4:  BRA    14B0
014C6:  BSF    x2A.6
014C8:  BRA    15A4
014CA:  BCF    x2A.6
014CC:  MOVFF  621,629
014D0:  BTFSS  x21.7
014D2:  BRA    14D8
014D4:  BSF    x2E.7
014D6:  BRA    162E
014D8:  BCF    x2E.7
014DA:  BRA    162E
014DC:  MOVFF  624,628
014E0:  MOVFF  624,00
014E4:  MOVF   x20,W
014E6:  SUBWF  x28,F
014E8:  MOVFF  621,62E
014EC:  BSF    x2E.7
014EE:  MOVFF  622,62D
014F2:  MOVFF  623,62C
014F6:  CLRF   x2B
014F8:  BCF    FD8.0
014FA:  RRCF   x2E,F
014FC:  RRCF   x2D,F
014FE:  RRCF   x2C,F
01500:  RRCF   x2B,F
01502:  DECFSZ x28,F
01504:  BRA    14F6
01506:  BTFSS  x29.7
01508:  BRA    1510
0150A:  BSF    x2A.1
0150C:  BRA    1646
0150E:  BCF    x2A.1
01510:  BCF    x28.0
01512:  BSF    x2A.5
01514:  MOVLW  06
01516:  MOVWF  FEA
01518:  MOVLW  27
0151A:  MOVWF  FE9
0151C:  BRA    166C
0151E:  BCF    x2A.5
01520:  BTFSC  x29.7
01522:  BRA    1538
01524:  BTFSS  x28.0
01526:  BRA    154E
01528:  RRCF   x2E,F
0152A:  RRCF   x2D,F
0152C:  RRCF   x2C,F
0152E:  RRCF   x2B,F
01530:  INCF   00,F
01532:  BTFSC  FD8.2
01534:  BRA    163C
01536:  BRA    154E
01538:  BTFSC  x2E.7
0153A:  BRA    1554
0153C:  BCF    FD8.0
0153E:  RLCF   x2B,F
01540:  RLCF   x2C,F
01542:  RLCF   x2D,F
01544:  RLCF   x2E,F
01546:  DECF   00,F
01548:  BTFSC  FD8.2
0154A:  BRA    163C
0154C:  BRA    1538
0154E:  BSF    x2A.7
01550:  BRA    15A4
01552:  BCF    x2A.7
01554:  MOVFF  625,629
01558:  BTFSS  x25.7
0155A:  BRA    1560
0155C:  BSF    x2E.7
0155E:  BRA    162E
01560:  BCF    x2E.7
01562:  BRA    162E
01564:  MOVFF  625,62E
01568:  BSF    x2E.7
0156A:  MOVFF  626,62D
0156E:  MOVFF  627,62C
01572:  BTFSS  x29.7
01574:  BRA    157E
01576:  BCF    x2E.7
01578:  BSF    x2A.2
0157A:  BRA    1646
0157C:  BCF    x2A.2
0157E:  CLRF   x2B
01580:  BCF    x28.0
01582:  MOVLW  06
01584:  MOVWF  FEA
01586:  MOVLW  23
01588:  MOVWF  FE9
0158A:  BRA    166C
0158C:  BTFSC  x29.7
0158E:  BRA    15C8
01590:  MOVFF  621,629
01594:  BTFSS  x28.0
01596:  BRA    15A4
01598:  RRCF   x2E,F
0159A:  RRCF   x2D,F
0159C:  RRCF   x2C,F
0159E:  RRCF   x2B,F
015A0:  INCF   00,F
015A2:  BZ    163C
015A4:  BTFSS  x2B.7
015A6:  BRA    15BE
015A8:  INCF   x2C,F
015AA:  BNZ   15BE
015AC:  INCF   x2D,F
015AE:  BNZ   15BE
015B0:  INCF   x2E,F
015B2:  BNZ   15BE
015B4:  RRCF   x2E,F
015B6:  RRCF   x2D,F
015B8:  RRCF   x2C,F
015BA:  INCF   00,F
015BC:  BZ    163C
015BE:  BTFSC  x2A.6
015C0:  BRA    14CA
015C2:  BTFSC  x2A.7
015C4:  BRA    1552
015C6:  BRA    1600
015C8:  MOVLW  80
015CA:  XORWF  x2E,F
015CC:  BTFSS  x2E.7
015CE:  BRA    15D8
015D0:  BRA    1646
015D2:  MOVFF  625,629
015D6:  BRA    15EC
015D8:  MOVFF  621,629
015DC:  MOVF   x2E,F
015DE:  BNZ   15EC
015E0:  MOVF   x2D,F
015E2:  BNZ   15EC
015E4:  MOVF   x2C,F
015E6:  BNZ   15EC
015E8:  CLRF   00
015EA:  BRA    162E
015EC:  BTFSC  x2E.7
015EE:  BRA    1600
015F0:  BCF    FD8.0
015F2:  RLCF   x2B,F
015F4:  RLCF   x2C,F
015F6:  RLCF   x2D,F
015F8:  RLCF   x2E,F
015FA:  DECFSZ 00,F
015FC:  BRA    15EC
015FE:  BRA    163C
01600:  BTFSS  x29.7
01602:  BRA    1608
01604:  BSF    x2E.7
01606:  BRA    162E
01608:  BCF    x2E.7
0160A:  BRA    162E
0160C:  MOVFF  624,00
01610:  MOVFF  625,62E
01614:  MOVFF  626,62D
01618:  MOVFF  627,62C
0161C:  BRA    162E
0161E:  MOVFF  620,00
01622:  MOVFF  621,62E
01626:  MOVFF  622,62D
0162A:  MOVFF  623,62C
0162E:  MOVFF  62E,01
01632:  MOVFF  62D,02
01636:  MOVFF  62C,03
0163A:  BRA    16A4
0163C:  CLRF   00
0163E:  CLRF   01
01640:  CLRF   02
01642:  CLRF   03
01644:  BRA    16A4
01646:  CLRF   x2B
01648:  COMF   x2C,F
0164A:  COMF   x2D,F
0164C:  COMF   x2E,F
0164E:  COMF   x2B,F
01650:  INCF   x2B,F
01652:  BNZ   165E
01654:  INCF   x2C,F
01656:  BNZ   165E
01658:  INCF   x2D,F
0165A:  BNZ   165E
0165C:  INCF   x2E,F
0165E:  BTFSC  x2A.0
01660:  BRA    1486
01662:  BTFSC  x2A.1
01664:  BRA    150E
01666:  BTFSC  x2A.2
01668:  BRA    157C
0166A:  BRA    15D2
0166C:  MOVF   FEF,W
0166E:  ADDWF  x2C,F
01670:  BNC   167C
01672:  INCF   x2D,F
01674:  BNZ   167C
01676:  INCF   x2E,F
01678:  BTFSC  FD8.2
0167A:  BSF    x28.0
0167C:  MOVF   FED,F
0167E:  MOVF   FEF,W
01680:  ADDWF  x2D,F
01682:  BNC   168A
01684:  INCF   x2E,F
01686:  BTFSC  FD8.2
01688:  BSF    x28.0
0168A:  MOVF   FED,F
0168C:  MOVF   FEF,W
0168E:  BTFSC  FEF.7
01690:  BRA    1694
01692:  XORLW  80
01694:  ADDWF  x2E,F
01696:  BTFSC  FD8.0
01698:  BSF    x28.0
0169A:  BTFSC  x2A.4
0169C:  BRA    1496
0169E:  BTFSC  x2A.5
016A0:  BRA    151E
016A2:  BRA    158C
016A4:  MOVLB  0
016A6:  RETURN 0
016A8:  MOVFF  61D,624
016AC:  MOVLB  6
016AE:  MOVF   x21,W
016B0:  XORWF  x24,F
016B2:  BTFSS  x24.7
016B4:  BRA    16C0
016B6:  BCF    FD8.2
016B8:  BCF    FD8.0
016BA:  BTFSC  x1D.7
016BC:  BSF    FD8.0
016BE:  BRA    171E
016C0:  MOVFF  61D,624
016C4:  MOVFF  620,625
016C8:  MOVF   x1C,W
016CA:  SUBWF  x25,F
016CC:  BZ    16DA
016CE:  BTFSS  x24.7
016D0:  BRA    171E
016D2:  MOVF   FD8,W
016D4:  XORLW  01
016D6:  MOVWF  FD8
016D8:  BRA    171E
016DA:  MOVFF  621,625
016DE:  MOVF   x1D,W
016E0:  SUBWF  x25,F
016E2:  BZ    16F0
016E4:  BTFSS  x24.7
016E6:  BRA    171E
016E8:  MOVF   FD8,W
016EA:  XORLW  01
016EC:  MOVWF  FD8
016EE:  BRA    171E
016F0:  MOVFF  622,625
016F4:  MOVF   x1E,W
016F6:  SUBWF  x25,F
016F8:  BZ    1706
016FA:  BTFSS  x24.7
016FC:  BRA    171E
016FE:  MOVF   FD8,W
01700:  XORLW  01
01702:  MOVWF  FD8
01704:  BRA    171E
01706:  MOVFF  623,625
0170A:  MOVF   x1F,W
0170C:  SUBWF  x25,F
0170E:  BZ    171C
01710:  BTFSS  x24.7
01712:  BRA    171E
01714:  MOVF   FD8,W
01716:  XORLW  01
01718:  MOVWF  FD8
0171A:  BRA    171E
0171C:  BCF    FD8.0
0171E:  MOVLB  0
01720:  RETURN 0
01722:  MOVLB  6
01724:  MOVF   x15,W
01726:  BTFSC  FD8.2
01728:  BRA    1874
0172A:  MOVWF  x21
0172C:  MOVF   x19,W
0172E:  BTFSC  FD8.2
01730:  BRA    1874
01732:  SUBWF  x21,F
01734:  BNC   1740
01736:  MOVLW  7F
01738:  ADDWF  x21,F
0173A:  BTFSC  FD8.0
0173C:  BRA    1874
0173E:  BRA    174C
01740:  MOVLW  81
01742:  SUBWF  x21,F
01744:  BTFSS  FD8.0
01746:  BRA    1874
01748:  BTFSC  FD8.2
0174A:  BRA    1874
0174C:  MOVFF  621,00
01750:  CLRF   01
01752:  CLRF   02
01754:  CLRF   03
01756:  CLRF   x20
01758:  MOVFF  616,61F
0175C:  BSF    x1F.7
0175E:  MOVFF  617,61E
01762:  MOVFF  618,61D
01766:  MOVLW  19
01768:  MOVWF  x21
0176A:  MOVF   x1C,W
0176C:  SUBWF  x1D,F
0176E:  BC    178A
01770:  MOVLW  01
01772:  SUBWF  x1E,F
01774:  BC    178A
01776:  SUBWF  x1F,F
01778:  BC    178A
0177A:  SUBWF  x20,F
0177C:  BC    178A
0177E:  INCF   x20,F
01780:  INCF   x1F,F
01782:  INCF   x1E,F
01784:  MOVF   x1C,W
01786:  ADDWF  x1D,F
01788:  BRA    17DA
0178A:  MOVF   x1B,W
0178C:  SUBWF  x1E,F
0178E:  BC    17B4
01790:  MOVLW  01
01792:  SUBWF  x1F,F
01794:  BC    17B4
01796:  SUBWF  x20,F
01798:  BC    17B4
0179A:  INCF   x20,F
0179C:  INCF   x1F,F
0179E:  MOVF   x1B,W
017A0:  ADDWF  x1E,F
017A2:  MOVF   x1C,W
017A4:  ADDWF  x1D,F
017A6:  BNC   17DA
017A8:  INCF   x1E,F
017AA:  BNZ   17DA
017AC:  INCF   x1F,F
017AE:  BNZ   17DA
017B0:  INCF   x20,F
017B2:  BRA    17DA
017B4:  MOVF   x1A,W
017B6:  IORLW  80
017B8:  SUBWF  x1F,F
017BA:  BC    17D8
017BC:  MOVLW  01
017BE:  SUBWF  x20,F
017C0:  BC    17D8
017C2:  INCF   x20,F
017C4:  MOVF   x1A,W
017C6:  IORLW  80
017C8:  ADDWF  x1F,F
017CA:  MOVF   x1B,W
017CC:  ADDWF  x1E,F
017CE:  BNC   17A2
017D0:  INCF   x1F,F
017D2:  BNZ   17A2
017D4:  INCF   x20,F
017D6:  BRA    17A2
017D8:  BSF    03.0
017DA:  DECFSZ x21,F
017DC:  BRA    17E0
017DE:  BRA    17F6
017E0:  BCF    FD8.0
017E2:  RLCF   x1D,F
017E4:  RLCF   x1E,F
017E6:  RLCF   x1F,F
017E8:  RLCF   x20,F
017EA:  BCF    FD8.0
017EC:  RLCF   03,F
017EE:  RLCF   02,F
017F0:  RLCF   01,F
017F2:  RLCF   x22,F
017F4:  BRA    176A
017F6:  BTFSS  x22.0
017F8:  BRA    1806
017FA:  BCF    FD8.0
017FC:  RRCF   01,F
017FE:  RRCF   02,F
01800:  RRCF   03,F
01802:  RRCF   x22,F
01804:  BRA    180A
01806:  DECF   00,F
01808:  BZ    1874
0180A:  BTFSC  x22.7
0180C:  BRA    184A
0180E:  BCF    FD8.0
01810:  RLCF   x1D,F
01812:  RLCF   x1E,F
01814:  RLCF   x1F,F
01816:  RLCF   x20,F
01818:  MOVF   x1C,W
0181A:  SUBWF  x1D,F
0181C:  BC    182C
0181E:  MOVLW  01
01820:  SUBWF  x1E,F
01822:  BC    182C
01824:  SUBWF  x1F,F
01826:  BC    182C
01828:  SUBWF  x20,F
0182A:  BNC   1860
0182C:  MOVF   x1B,W
0182E:  SUBWF  x1E,F
01830:  BC    183C
01832:  MOVLW  01
01834:  SUBWF  x1F,F
01836:  BC    183C
01838:  SUBWF  x20,F
0183A:  BNC   1860
0183C:  MOVF   x1A,W
0183E:  IORLW  80
01840:  SUBWF  x1F,F
01842:  BC    184A
01844:  MOVLW  01
01846:  SUBWF  x20,F
01848:  BNC   1860
0184A:  INCF   03,F
0184C:  BNZ   1860
0184E:  INCF   02,F
01850:  BNZ   1860
01852:  INCF   01,F
01854:  BNZ   1860
01856:  INCF   00,F
01858:  BZ    1874
0185A:  RRCF   01,F
0185C:  RRCF   02,F
0185E:  RRCF   03,F
01860:  MOVFF  616,621
01864:  MOVF   x1A,W
01866:  XORWF  x21,F
01868:  BTFSS  x21.7
0186A:  BRA    1870
0186C:  BSF    01.7
0186E:  BRA    187C
01870:  BCF    01.7
01872:  BRA    187C
01874:  CLRF   00
01876:  CLRF   01
01878:  CLRF   02
0187A:  CLRF   03
0187C:  MOVLB  0
0187E:  RETURN 0
*
02014:  ADDWF  FE8,W
02016:  CLRF   FF7
02018:  RLCF   FF7,F
0201A:  ADDLW  2F
0201C:  MOVWF  FF6
0201E:  MOVLW  20
02020:  ADDWFC FF7,F
02022:  TBLRD*-
02024:  MOVF   FF5,W
02026:  MOVWF  FFA
02028:  TBLRD*
0202A:  MOVF   FF5,W
0202C:  MOVWF  FF9
0202E:  DATA 1C,1F
02030:  DATA 36,1F
02032:  DATA 8A,1F
02034:  DATA EE,1F
02036:  MOVLW  8E
02038:  MOVWF  00
0203A:  MOVFF  613,01
0203E:  MOVFF  612,02
02042:  CLRF   03
02044:  BTFSS  01.7
02046:  BRA    2052
02048:  COMF   01,F
0204A:  COMF   02,F
0204C:  INCF   02,F
0204E:  BNZ   2052
02050:  INCF   01,F
02052:  MOVF   01,F
02054:  BNZ   2068
02056:  MOVFF  02,01
0205A:  CLRF   02
0205C:  MOVLW  08
0205E:  SUBWF  00,F
02060:  MOVF   01,F
02062:  BNZ   2068
02064:  CLRF   00
02066:  BRA    2084
02068:  BCF    FD8.0
0206A:  BTFSC  01.7
0206C:  BRA    2076
0206E:  RLCF   02,F
02070:  RLCF   01,F
02072:  DECF   00,F
02074:  BRA    2068
02076:  MOVLB  6
02078:  BTFSS  x13.7
0207A:  BRA    2080
0207C:  MOVLB  0
0207E:  BRA    2084
02080:  BCF    01.7
02082:  MOVLB  0
02084:  RETURN 0
02086:  MOVLW  8E
02088:  MOVWF  00
0208A:  MOVLB  6
0208C:  MOVF   x1C,W
0208E:  SUBWF  00,F
02090:  MOVFF  61D,02
02094:  MOVFF  61E,01
02098:  BSF    02.7
0209A:  MOVF   00,F
0209C:  BZ    20B0
0209E:  BCF    FD8.0
020A0:  MOVF   02,F
020A2:  BNZ   20A8
020A4:  MOVF   01,F
020A6:  BZ    20B0
020A8:  RRCF   02,F
020AA:  RRCF   01,F
020AC:  DECFSZ 00,F
020AE:  BRA    209E
020B0:  BTFSS  x1D.7
020B2:  BRA    20BE
020B4:  COMF   01,F
020B6:  COMF   02,F
020B8:  INCF   01,F
020BA:  BTFSC  FD8.2
020BC:  INCF   02,F
020BE:  MOVLB  0
020C0:  RETURN 0
020C2:  MOVLW  8E
020C4:  MOVWF  00
020C6:  MOVFF  621,01
020CA:  MOVFF  620,02
020CE:  CLRF   03
020D0:  MOVF   01,F
020D2:  BNZ   20E6
020D4:  MOVFF  02,01
020D8:  CLRF   02
020DA:  MOVLW  08
020DC:  SUBWF  00,F
020DE:  MOVF   01,F
020E0:  BNZ   20E6
020E2:  CLRF   00
020E4:  BRA    20F6
020E6:  BCF    FD8.0
020E8:  BTFSC  01.7
020EA:  BRA    20F4
020EC:  RLCF   02,F
020EE:  RLCF   01,F
020F0:  DECF   00,F
020F2:  BRA    20E6
020F4:  BCF    01.7
020F6:  RETURN 0
*
04040:  MOVFF  563,FEA
04044:  MOVFF  562,FE9
04048:  MOVLB  5
0404A:  MOVFF  5E9,FEF
0404E:  INCF   FE9,F
04050:  BTFSC  FD8.2
04052:  INCF   FEA,F
04054:  CLRF   FEF
04056:  INCF   x62,F
04058:  BTFSC  FD8.2
0405A:  INCF   x63,F
0405C:  MOVLB  0
0405E:  RETURN 0
04060:  MOVF   01,W
04062:  MOVFF  5DC,60F
04066:  MOVLW  64
04068:  MOVLB  6
0406A:  MOVWF  x10
0406C:  MOVLB  0
0406E:  CALL   0814
04072:  MOVFF  00,5DC
04076:  MOVF   01,W
04078:  MOVLW  30
0407A:  BNZ   408C
0407C:  MOVLB  5
0407E:  BTFSS  xDD.1
04080:  BRA    409E
04082:  BTFSC  xDD.3
04084:  BRA    409E
04086:  BTFSC  xDD.4
04088:  MOVLW  20
0408A:  BRA    4094
0408C:  MOVLB  5
0408E:  BCF    xDD.3
04090:  BCF    xDD.4
04092:  BSF    xDD.0
04094:  ADDWF  01,F
04096:  MOVFF  01,5E9
0409A:  MOVLB  0
0409C:  RCALL  4040
0409E:  MOVFF  5DC,60F
040A2:  MOVLW  0A
040A4:  MOVLB  6
040A6:  MOVWF  x10
040A8:  MOVLB  0
040AA:  CALL   0814
040AE:  MOVFF  00,5DC
040B2:  MOVF   01,W
040B4:  MOVLW  30
040B6:  BNZ   40C8
040B8:  MOVLB  5
040BA:  BTFSC  xDD.3
040BC:  BRA    40D2
040BE:  BTFSS  xDD.0
040C0:  BRA    40D2
040C2:  BTFSC  xDD.4
040C4:  MOVLW  20
040C6:  MOVLB  0
040C8:  ADDWF  01,F
040CA:  MOVFF  01,5E9
040CE:  RCALL  4040
040D0:  MOVLB  5
040D2:  MOVLW  30
040D4:  ADDWF  xDC,F
040D6:  MOVFF  5DC,5E9
040DA:  MOVLB  0
040DC:  RCALL  4040
040DE:  GOTO   4652 (RETURN)
040E2:  MOVLB  5
040E4:  MOVF   xE9,W
040E6:  SUBLW  B6
040E8:  MOVWF  xE9
040EA:  CLRF   03
040EC:  MOVFF  5EA,5ED
040F0:  BSF    xEA.7
040F2:  BCF    FD8.0
040F4:  RRCF   xEA,F
040F6:  RRCF   xEB,F
040F8:  RRCF   xEC,F
040FA:  RRCF   03,F
040FC:  RRCF   02,F
040FE:  RRCF   01,F
04100:  RRCF   00,F
04102:  DECFSZ xE9,F
04104:  BRA    40F2
04106:  BTFSS  xED.7
04108:  BRA    4120
0410A:  COMF   00,F
0410C:  COMF   01,F
0410E:  COMF   02,F
04110:  COMF   03,F
04112:  INCF   00,F
04114:  BTFSC  FD8.2
04116:  INCF   01,F
04118:  BTFSC  FD8.2
0411A:  INCF   02,F
0411C:  BTFSC  FD8.2
0411E:  INCF   03,F
04120:  MOVLB  0
04122:  GOTO   4214 (RETURN)
04126:  BTFSC  FD8.1
04128:  BRA    4132
0412A:  MOVLW  05
0412C:  MOVWF  FEA
0412E:  MOVLW  F1
04130:  MOVWF  FE9
04132:  CLRF   00
04134:  CLRF   01
04136:  CLRF   02
04138:  CLRF   03
0413A:  MOVLB  5
0413C:  CLRF   xF1
0413E:  CLRF   xF2
04140:  CLRF   xF3
04142:  CLRF   xF4
04144:  MOVF   xF0,W
04146:  IORWF  xEF,W
04148:  IORWF  xEE,W
0414A:  IORWF  xED,W
0414C:  BZ    41A6
0414E:  MOVLW  20
04150:  MOVWF  xF5
04152:  BCF    FD8.0
04154:  RLCF   xE9,F
04156:  RLCF   xEA,F
04158:  RLCF   xEB,F
0415A:  RLCF   xEC,F
0415C:  RLCF   xF1,F
0415E:  RLCF   xF2,F
04160:  RLCF   xF3,F
04162:  RLCF   xF4,F
04164:  MOVF   xF0,W
04166:  SUBWF  xF4,W
04168:  BNZ   417A
0416A:  MOVF   xEF,W
0416C:  SUBWF  xF3,W
0416E:  BNZ   417A
04170:  MOVF   xEE,W
04172:  SUBWF  xF2,W
04174:  BNZ   417A
04176:  MOVF   xED,W
04178:  SUBWF  xF1,W
0417A:  BNC   419A
0417C:  MOVF   xED,W
0417E:  SUBWF  xF1,F
04180:  MOVF   xEE,W
04182:  BTFSS  FD8.0
04184:  INCFSZ xEE,W
04186:  SUBWF  xF2,F
04188:  MOVF   xEF,W
0418A:  BTFSS  FD8.0
0418C:  INCFSZ xEF,W
0418E:  SUBWF  xF3,F
04190:  MOVF   xF0,W
04192:  BTFSS  FD8.0
04194:  INCFSZ xF0,W
04196:  SUBWF  xF4,F
04198:  BSF    FD8.0
0419A:  RLCF   00,F
0419C:  RLCF   01,F
0419E:  RLCF   02,F
041A0:  RLCF   03,F
041A2:  DECFSZ xF5,F
041A4:  BRA    4152
041A6:  MOVFF  5F1,FEF
041AA:  MOVFF  5F2,FEC
041AE:  MOVFF  5F3,FEC
041B2:  MOVFF  5F4,FEC
041B6:  MOVLB  0
041B8:  RETURN 0
041BA:  MOVF   FE9,W
041BC:  MOVLB  5
041BE:  MOVWF  xE1
041C0:  MOVF   xE0,W
041C2:  MOVWF  xE3
041C4:  BZ    4200
041C6:  MOVFF  5DF,61F
041CA:  MOVFF  5DE,61E
041CE:  MOVFF  5DD,61D
041D2:  MOVFF  5DC,61C
041D6:  MOVLB  6
041D8:  CLRF   x23
041DA:  CLRF   x22
041DC:  MOVLW  20
041DE:  MOVWF  x21
041E0:  MOVLW  82
041E2:  MOVWF  x20
041E4:  MOVLB  0
041E6:  CALL   133A
041EA:  MOVFF  03,5DF
041EE:  MOVFF  02,5DE
041F2:  MOVFF  01,5DD
041F6:  MOVFF  00,5DC
041FA:  MOVLB  5
041FC:  DECFSZ xE3,F
041FE:  BRA    41C6
04200:  MOVFF  5DF,5EC
04204:  MOVFF  5DE,5EB
04208:  MOVFF  5DD,5EA
0420C:  MOVFF  5DC,5E9
04210:  MOVLB  0
04212:  BRA    40E2
04214:  MOVFF  03,5DF
04218:  MOVFF  02,5DE
0421C:  MOVFF  01,5DD
04220:  MOVFF  00,5DC
04224:  MOVLB  5
04226:  BTFSS  xDF.7
04228:  BRA    4244
0422A:  DECF   xE1,F
0422C:  BSF    xE1.5
0422E:  COMF   xDC,F
04230:  COMF   xDD,F
04232:  COMF   xDE,F
04234:  COMF   xDF,F
04236:  INCF   xDC,F
04238:  BTFSC  FD8.2
0423A:  INCF   xDD,F
0423C:  BTFSC  FD8.2
0423E:  INCF   xDE,F
04240:  BTFSC  FD8.2
04242:  INCF   xDF,F
04244:  MOVLW  3B
04246:  MOVWF  xE8
04248:  MOVLW  9A
0424A:  MOVWF  xE7
0424C:  MOVLW  CA
0424E:  MOVWF  xE6
04250:  CLRF   xE5
04252:  MOVLW  0A
04254:  MOVWF  xE3
04256:  MOVF   xE0,W
04258:  BTFSC  FD8.2
0425A:  INCF   xE1,F
0425C:  BSF    FD8.1
0425E:  MOVLW  05
04260:  MOVWF  FEA
04262:  MOVLW  DC
04264:  MOVWF  FE9
04266:  MOVFF  5DF,5EC
0426A:  MOVFF  5DE,5EB
0426E:  MOVFF  5DD,5EA
04272:  MOVFF  5DC,5E9
04276:  MOVFF  5E8,5F0
0427A:  MOVFF  5E7,5EF
0427E:  MOVFF  5E6,5EE
04282:  MOVFF  5E5,5ED
04286:  MOVLB  0
04288:  RCALL  4126
0428A:  MOVF   01,W
0428C:  MOVF   00,F
0428E:  BNZ   42B6
04290:  MOVLB  5
04292:  INCF   xE0,W
04294:  SUBWF  xE3,W
04296:  BTFSS  FD8.2
04298:  BRA    429E
0429A:  MOVLB  0
0429C:  BRA    42B6
0429E:  MOVF   xE1,W
042A0:  BZ    42BC
042A2:  ANDLW  0F
042A4:  SUBWF  xE3,W
042A6:  BZ    42AA
042A8:  BC    432A
042AA:  BTFSC  xE1.7
042AC:  BRA    432A
042AE:  BTFSC  xE1.6
042B0:  BRA    42BC
042B2:  MOVLW  20
042B4:  BRA    431E
042B6:  MOVLW  20
042B8:  MOVLB  5
042BA:  ANDWF  xE1,F
042BC:  BTFSS  xE1.5
042BE:  BRA    42DC
042C0:  BCF    xE1.5
042C2:  MOVF   xE0,W
042C4:  BTFSS  FD8.2
042C6:  DECF   xE1,F
042C8:  MOVF   00,W
042CA:  MOVWF  xE1
042CC:  MOVLW  2D
042CE:  MOVWF  xE9
042D0:  MOVLB  0
042D2:  RCALL  4040
042D4:  MOVLB  5
042D6:  MOVF   xE1,W
042D8:  MOVWF  00
042DA:  CLRF   xE1
042DC:  MOVF   xE0,W
042DE:  SUBWF  xE3,W
042E0:  BNZ   42FA
042E2:  MOVF   00,W
042E4:  MOVWF  xE1
042E6:  MOVLW  2E
042E8:  MOVWF  xE9
042EA:  MOVLB  0
042EC:  RCALL  4040
042EE:  MOVLB  5
042F0:  MOVF   xE1,W
042F2:  MOVWF  00
042F4:  MOVLW  20
042F6:  ANDWF  xE1,F
042F8:  MOVLW  00
042FA:  MOVLW  30
042FC:  BTFSS  xE1.5
042FE:  BRA    431E
04300:  BCF    xE1.5
04302:  MOVF   xE0,W
04304:  BTFSS  FD8.2
04306:  DECF   xE1,F
04308:  MOVF   00,W
0430A:  MOVWF  xE1
0430C:  MOVLW  2D
0430E:  MOVWF  xE9
04310:  MOVLB  0
04312:  RCALL  4040
04314:  MOVLB  5
04316:  MOVF   xE1,W
04318:  MOVWF  00
0431A:  CLRF   xE1
0431C:  MOVLW  30
0431E:  ADDWF  00,F
04320:  MOVFF  00,5E9
04324:  MOVLB  0
04326:  RCALL  4040
04328:  MOVLB  5
0432A:  BCF    FD8.1
0432C:  MOVFF  5E8,5EC
04330:  MOVFF  5E7,5EB
04334:  MOVFF  5E6,5EA
04338:  MOVFF  5E5,5E9
0433C:  CLRF   xF0
0433E:  CLRF   xEF
04340:  CLRF   xEE
04342:  MOVLW  0A
04344:  MOVWF  xED
04346:  MOVLB  0
04348:  RCALL  4126
0434A:  MOVFF  03,5E8
0434E:  MOVFF  02,5E7
04352:  MOVFF  01,5E6
04356:  MOVFF  00,5E5
0435A:  MOVLB  5
0435C:  DECFSZ xE3,F
0435E:  BRA    425C
04360:  MOVLB  0
04362:  RETURN 0
04364:  MOVF   FEF,F
04366:  BZ    438C
04368:  MOVFF  FEA,5D4
0436C:  MOVFF  FE9,5D3
04370:  MOVF   FEF,W
04372:  MOVLB  E
04374:  BTFSS  xC8.4
04376:  BRA    4374
04378:  MOVWF  F99
0437A:  MOVFF  5D4,FEA
0437E:  MOVFF  5D3,FE9
04382:  INCF   FE9,F
04384:  BTFSC  FD8.2
04386:  INCF   FEA,F
04388:  MOVLB  0
0438A:  BRA    4364
0438C:  GOTO   43AC (RETURN)
.................... 
.................... #list
.................... 
.................... 
.................... #device ADC=10
.................... 
.................... //!#FUSES WDT                      //Watch Dog Timer
.................... //!#FUSES WDT4096                  //Watch Dog Timer uses 1:4096 Postscale
.................... 
.................... #use delay(internal=64000000)
*
003B8:  MOVLW  05
003BA:  MOVWF  FEA
003BC:  MOVLW  D7
003BE:  MOVWF  FE9
003C0:  MOVF   FEF,W
003C2:  BZ    03E0
003C4:  MOVLW  14
003C6:  MOVWF  01
003C8:  CLRF   00
003CA:  DECFSZ 00,F
003CC:  BRA    03CA
003CE:  DECFSZ 01,F
003D0:  BRA    03C8
003D2:  MOVLW  BF
003D4:  MOVWF  00
003D6:  DECFSZ 00,F
003D8:  BRA    03D6
003DA:  BRA    03DC
003DC:  DECFSZ FEF,F
003DE:  BRA    03C4
003E0:  RETURN 0
*
00680:  MOVLW  01
00682:  MOVLB  5
00684:  SUBWF  xDD,F
00686:  BNC   06A0
00688:  MOVLW  05
0068A:  MOVWF  FEA
0068C:  MOVLW  DD
0068E:  MOVWF  FE9
00690:  MOVF   FEF,W
00692:  BZ    06A0
00694:  MOVLW  04
00696:  MOVWF  00
00698:  DECFSZ 00,F
0069A:  BRA    0698
0069C:  DECFSZ FEF,F
0069E:  BRA    0694
006A0:  MOVLB  0
006A2:  RETURN 0
.................... #define baudRate 128000
.................... #define numChannels 2
.................... 
.................... #define version  "20260316" // SW Version
.................... #define serialID "0000"     // Unique Serial ID
.................... #define magPP 1             // Magnetoresistive Sensor Pole Pitch in mm   
.................... #define gainLvl 16          // 1, 2, 4, 8, 16, 32, 64, 128
.................... 
.................... 
.................... #include <io.h>
.................... #ifndef IO
.................... #define IO
.................... 
.................... #use FIXED_IO( A_outputs=PIN_A5,PIN_A4 )
.................... #use FIXED_IO( B_outputs=PIN_B7,PIN_B6,PIN_B5,PIN_B4,PIN_B3,PIN_B1,PIN_B0 )
.................... #use FIXED_IO( C_outputs=PIN_C6,PIN_C5,PIN_C3,PIN_C2 )
.................... #use FIXED_IO( D_outputs=PIN_D7,PIN_D6,PIN_D5 )
.................... #use FIXED_IO( E_outputs=PIN_E2,PIN_E1,PIN_E0 )
.................... 
.................... #define A0           PIN_A0
.................... #define A1           PIN_A1
.................... #define A2           PIN_A2
.................... #define A3           PIN_A3
.................... #define _CS_ACC1     PIN_A4
.................... #define _CS_ACC0     PIN_A5
.................... #define MON_N15V     PIN_A6
.................... 
.................... #define _CS_YCOS     PIN_B0
.................... #define SCLK_B       PIN_B1
.................... #define MISO_B       PIN_B2
.................... #define MOSI_B       PIN_B3
.................... #define INV_HVX      PIN_B4
.................... #define INV_HVY      PIN_B5
.................... 
.................... #define MON_200V     PIN_C0
.................... #define MON_3V6X     PIN_C1
.................... #define MOSI_A       PIN_C2
.................... #define SCLK_A       PIN_C3
.................... #define MISO_A       PIN_C4
.................... #define TX_ENABLE    PIN_C5
.................... #define TX_PIN       PIN_C6
.................... #define RX_PIN       PIN_C7
.................... 
.................... #define MON_5V6      PIN_D0
.................... #define MON_5VA      PIN_D1
.................... #define MON_3V3D     PIN_D2
.................... #define MON_3V3A     PIN_D3
.................... #define RS485_FLT    PIN_D4
.................... #define _CS_XSIN     PIN_D5
.................... #define _CS_XCOS     PIN_D6
.................... #define _CS_YSIN     PIN_D7
.................... 
.................... #define EN_EXC       PIN_E0
.................... #define _SYNC_Y      PIN_E1
.................... #define _SYNC_X      PIN_E2
.................... 
.................... #pin_select U1TX = PIN_C6
.................... #pin_select U1RX = PIN_C7
.................... 
.................... // initialization states
.................... #define portA_reset 0x00
.................... #define portB_reset 0x00
.................... #define portC_reset 0x00
.................... #define portD_reset 0x00
.................... #define portE_reset 0x00
.................... 
.................... #define portA_pullups 0xFF
.................... #define portB_pullups 0x00
.................... #define portC_pullups 0x00
.................... #define portD_pullups 0xFF
.................... #define portE_pullups 0x00
.................... 
.................... /*****************************************************************************/
.................... /* INITIALIZE IO                                                             */
.................... /*****************************************************************************/
.................... void IO_init()
.................... {
....................    output_a(portA_reset);
*
00322:  MOVLW  CF
00324:  MOVWF  F87
00326:  CLRF   F82
....................    output_b(portB_reset);
00328:  MOVLW  04
0032A:  MOVWF  F88
0032C:  CLRF   F83
....................    output_c(portC_reset);
0032E:  MOVLW  93
00330:  MOVWF  F89
00332:  CLRF   F84
....................    output_d(portD_reset);
00334:  MOVLW  1F
00336:  MOVWF  F8A
00338:  CLRF   F85
....................    output_e(portE_reset);
0033A:  BCF    F8B.0
0033C:  BCF    F8B.1
0033E:  BCF    F8B.2
00340:  BCF    F8B.3
00342:  CLRF   F86
....................    
....................    port_a_pullups(portA_pullups);
00344:  MOVLB  F
00346:  SETF   x0B
....................    port_b_pullups(portB_pullups);
00348:  CLRF   x13
....................    port_c_pullups(portC_pullups);
0034A:  CLRF   x1B
....................    port_d_pullups(portD_pullups);
0034C:  SETF   x20
....................    port_e_pullups(portE_pullups);
0034E:  CLRF   x28
....................    
....................    set_analog_pins(MON_N15V, MON_200V, MON_5V6, MON_5VA, MON_3V6X, MON_3V3A, MON_3V3D);
00350:  MOVLW  40
00352:  MOVWF  x0C
00354:  CLRF   x14
00356:  MOVLW  03
00358:  MOVWF  x1C
0035A:  MOVLW  0F
0035C:  MOVWF  x21
0035E:  CLRF   x29
00360:  MOVLB  0
00362:  GOTO   459C (RETURN)
.................... }
.................... 
.................... #endif
.................... 
.................... #include <parameters.h>
.................... #ifndef parameters
.................... #define parameters
.................... 
.................... //#define use_ext_eeprom
.................... 
.................... /*****************************************************************************/
.................... /*****************************************************************************/
.................... /* PARAMETERS                                                                */
.................... /* Global parameters used by all routines                                    */
.................... /* These defaults are defined below. On first boot, they will be stored in   */
.................... /* EEProm. On subsequent boots, they will be reloaded from EEProm. Any       */
.................... /* configuation changes will be changed in EEprom, hence will be restored on */
.................... /* subsequent boot. All params start at page boundaries!!                    */
.................... /*****************************************************************************/
.................... /*****************************************************************************/
.................... #include <stddef.h>
.................... ///////////////////////////////////////////////////////////////////////////
.................... ////        (C) Copyright 1996,2003 Custom Computer Services           ////
.................... //// This source code may only be used by licensed users of the CCS C  ////
.................... //// compiler.  This source code may only be distributed to other      ////
.................... //// licensed users of the CCS C compiler.  No other use, reproduction ////
.................... //// or distribution is permitted without written permission.          ////
.................... //// Derivative programs created using this software in object code    ////
.................... //// form are not restricted in any way.                               ////
.................... ///////////////////////////////////////////////////////////////////////////
.................... 
.................... #ifndef _STDDEF
.................... 
.................... #define _STDDEF
.................... 
.................... #if sizeof(unsigned int8 *)==1
.................... #define ptrdiff_t unsigned int8
.................... #else
.................... #define ptrdiff_t unsigned int16
.................... #endif
.................... 
.................... #if defined(__PCB__) || defined(__PCM__)
.................... #define size_t unsigned int8
.................... #else
.................... #define size_t unsigned int16
.................... #endif
.................... #define wchar_t unsigned char
.................... #define NULL 0
.................... 
.................... #define offsetof(s,f) (offsetofbit(s,f)/8)
.................... 
.................... #endif
.................... 
.................... #include <stdlib.h>
.................... ///////////////////////////////////////////////////////////////////////////
.................... ////        (C) Copyright 1996,2007 Custom Computer Services           ////
.................... //// This source code may only be used by licensed users of the CCS C  ////
.................... //// compiler.  This source code may only be distributed to other      ////
.................... //// licensed users of the CCS C compiler.  No other use, reproduction ////
.................... //// or distribution is permitted without written permission.          ////
.................... //// Derivative programs created using this software in object code    ////
.................... //// form are not restricted in any way.                               ////
.................... ///////////////////////////////////////////////////////////////////////////
.................... 
.................... 
.................... #ifndef _STDLIB
.................... #define _STDLIB
.................... 
.................... //---------------------------------------------------------------------------
.................... // Definitions and types
.................... //---------------------------------------------------------------------------
.................... 
.................... #ifndef RAND_MAX
.................... #define RAND_MAX  32767    // The value of which is the maximum value
....................                            // ... returned by the rand function
.................... #endif
.................... 
.................... 
.................... #IF (sizeof(int16*)>1)
.................... #DEFINE LONG_POINTERS 1
.................... #ELSE 
.................... #DEFINE LONG_POINTERS 0
.................... #ENDIF
.................... 
.................... typedef struct {
....................    signed int quot;
....................    signed int rem;
.................... } div_t;
.................... 
.................... typedef struct {
....................    signed long quot;
....................    signed long rem;
.................... } ldiv_t;
.................... 
.................... #include <stddef.h>
.................... ///////////////////////////////////////////////////////////////////////////
.................... ////        (C) Copyright 1996,2003 Custom Computer Services           ////
.................... //// This source code may only be used by licensed users of the CCS C  ////
.................... //// compiler.  This source code may only be distributed to other      ////
.................... //// licensed users of the CCS C compiler.  No other use, reproduction ////
.................... //// or distribution is permitted without written permission.          ////
.................... //// Derivative programs created using this software in object code    ////
.................... //// form are not restricted in any way.                               ////
.................... ///////////////////////////////////////////////////////////////////////////
.................... 
.................... #ifndef _STDDEF
.................... 
.................... #define _STDDEF
.................... 
.................... #if sizeof(unsigned int8 *)==1
.................... #define ptrdiff_t unsigned int8
.................... #else
.................... #define ptrdiff_t unsigned int16
.................... #endif
.................... 
.................... #if defined(__PCB__) || defined(__PCM__)
.................... #define size_t unsigned int8
.................... #else
.................... #define size_t unsigned int16
.................... #endif
.................... #define wchar_t unsigned char
.................... #define NULL 0
.................... 
.................... #define offsetof(s,f) (offsetofbit(s,f)/8)
.................... 
.................... #endif
.................... 
.................... 
.................... //---------------------------------------------------------------------------
.................... // String conversion functions
.................... //---------------------------------------------------------------------------
.................... 
.................... /* Standard template: signed int  atoi(char * s)
....................  * converts the initial portion of the string s to a signed int
....................  * returns the converted value if any, 0 otherwise
....................  */
.................... signed int atoi(char *s);
.................... 
.................... /* Syntax: signed int32  atoi32(char * s)
....................    converts the initial portion of the string s to a signed int32
....................    returns the converted value if any, 0 otherwise*/
.................... #if (sizeof(long)==4)
....................  #define atoi32(s) atol(s)
.................... #else 
....................  signed int32 atoi32(char *s);
.................... #endif
.................... 
.................... #if defined(__PCD__)
.................... // The following functions only work on the 24 bit compiler
.................... // for the 30F, 33F, 24F and 24H parts
.................... /* Syntax: signed int48  atoi48(char * s)
....................    converts the initial portion of the string s to a signed int48
....................    returns the converted value if any, 0 otherwise*/
....................    
.................... signed int48 atoi48(char *s);
.................... 
.................... /* Syntax: signed int64  atoi64(char * s)
....................    converts the initial portion of the string s to a signed int64
....................    returns the converted value if any, 0 otherwise*/
.................... signed int64 atoi64(char *s);
.................... #endif
.................... 
.................... /* Syntax: char *  itoa(signed int32 num, int8 base, char * s)
....................    converts the signed int32 to a string and
....................    returns the converted value if any, 0 otherwise*/
.................... char * itoa(signed int32 num, unsigned int base, char * s);
.................... 
.................... /* Standard template: signed int16  atol(char * s)
....................  * converts the initial portion of the string s to a signed int16
....................  * returns the converted value if any, 0 otherwise
....................  */
.................... signed long atol(char *s);
.................... 
.................... /* Standard template: int16 strtoul(char * s,char *endptr,signed int base)
....................  * converts the initial portion of the string s, represented as an
....................  * integral value of radix base  to a signed long.
....................  * Returns the converted value if any, 0 otherwise
....................  * the final string is returned in the endptr, if endptr is not null
....................  */
.................... signed long strtol(char *s,char *endptr, signed int base);
.................... 
.................... /* Standard template: int16 strtoul(char * s,char *endptr,signed int base)
....................  * converts the initial portion of the string s, represented as an
....................  * integral value of radix base to a unsigned long.
....................  * returns the converted value if any, 0 otherwise
....................  * the final string is returned in the endptr, if endptr is not null
....................  */
.................... unsigned long strtoul(char *s,char *endptr, signed int base);
.................... 
.................... /* Standart template: float strtof(char * s,char *endptr)
....................                       float48 strtof48(char *s,char *endptr);
....................                       float64 strtod(char *s,char *endptr);
....................  * converts the initial portion of the string s to a float32, float48 or float64,
....................  * returns the converted value if any, 0 otherwise
....................  * the final string is returned in the endptr, if endptr is not null                   
.................... */
.................... float strtof(char *s,char **endptr);
.................... #if defined(__PCD__)
.................... float48 strtof48(char *s,char **endptr);
.................... float64 strtod(char *s,char **endptr);
.................... #else
.................... //provided for compatibility
.................... #define strtof48(s, e) strtof(s, e)
.................... #define strtod(s, e) strtof(s, e)
.................... #endif
.................... 
.................... /* Standard template: float32 atof(char * s)
....................  * converts the initial portion of the string s to a float.
....................  * returns the converted value if any, 0 otherwise
....................  */
.................... #define atof(s)   strtof(s, (char*)0)
.................... 
.................... #if defined(__PCD__)
.................... // The following functions only work on the 24 bit compiler
.................... // for the 30F, 33F, 24F and 24H parts
.................... 
.................... /* Standard template: float48 atof48(char * s)
....................  * converts the initial portion of the string s to a float.
....................  * returns the converted value if any, 0 otherwise
....................  */
.................... #define atof48(s) strtof48(s, 0)
.................... 
.................... /* Standard template: float64 atof64(char * s)
....................  * converts the initial portion of the string s to a float.
....................  * returns the converted value if any, 0 otherwise
....................  */
.................... #define atof64(s) strtod(s, 0)
.................... #endif
.................... 
.................... /* Standard template: float32 atoe(char * s)
....................  * converts the initial portion of the string s to a float.
....................  * returns the converted value if any, 0 otherwise
....................  * also handles E format numbers
....................  */
.................... #if !defined(__PCD__)
.................... float atoe(char * s);
.................... #endif
.................... 
.................... #if defined(__PCD__)
.................... float32 atoe(char * s);
.................... #endif
.................... 
.................... //---------------------------------------------------------------------------
.................... // Pseudo-random sequence generation functions
.................... //---------------------------------------------------------------------------
.................... 
.................... /* The rand function computes a sequence of pseudo-random integers in
....................  * the range 0 to RAND_MAX
....................  *
....................  * Parameters:
....................  *       (none)
....................  *
....................  * Returns:
....................  *       The pseudo-random integer
....................  */
.................... unsigned int16 rand(void);
.................... 
.................... /* The srand function uses the argument as a seed for a new sequence of
....................  * pseudo-random numbers to be returned by subsequent calls to rand.
....................  *
....................  * Parameters:
....................  *       [in] seed: The seed value to start from. You might need to pass
....................  *
....................  * Returns:
....................  *       (none)
....................  *
....................  * Remarks
....................  *          The srand function sets the starting point for generating
....................  *       a series of pseudorandom integers. To reinitialize the
....................  *       generator, use 1 as the seed argument. Any other value for
....................  *       seed sets the generator to a random starting point. rand
....................  *       retrieves the pseudorandom numbers that are generated.
....................  *       Calling rand before any call to srand generates the same
....................  *       sequence as calling srand with seed passed as 1.
....................  *          Usually, you need to pass a time here from outer source
....................  *       so that the numbers will be different every time you run.
....................  */
.................... void srand(unsigned int32 seed);
.................... 
.................... //---------------------------------------------------------------------------
.................... // Memory management functions
.................... //---------------------------------------------------------------------------
.................... 
.................... // Comming soon
.................... 
.................... //---------------------------------------------------------------------------
.................... // Communication with the environment
.................... //---------------------------------------------------------------------------
.................... 
.................... /* The function returns 0 always
....................  */
.................... signed int8 system(char *string);
.................... 
.................... //---------------------------------------------------------------------------
.................... // Searching and sorting utilities
.................... //---------------------------------------------------------------------------
.................... 
.................... /* Performs a binary search of a sorted array..
....................  *
....................  * Parameters:
....................  *       [in] key: Object to search for
....................  *       [in] base: Pointer to base of search data
....................  *       [in] num: Number of elements
....................  *       [in] width: Width of elements
....................  *       [in] compare: Function that compares two elements
....................  *
....................  * Returns:
....................  *       bsearch returns a pointer to an occurrence of key in the array pointed
....................  *       to by base. If key is not found, the function returns NULL. If the
....................  *       array is not in order or contains duplicate records with identical keys,
....................  *       the result is unpredictable.
....................  */
.................... //void *bsearch(const void *key, const void *base, size_t num, size_t width,
.................... //              int (*compare)(const void *, const void *));
.................... 
.................... /* Performs the shell-metzner sort (not the quick sort algorithm). The contents
....................  * of the array are sorted into ascending order according to a comparison
....................  * function pointed to by compar.
....................  *
....................  * Parameters:
....................  *       [in] base: Pointer to base of search data
....................  *       [in] num: Number of elements
....................  *       [in] width: Width of elements
....................  *       [in] compare: Function that compares two elements
....................  *
....................  * Returns:
....................  *       (none)
....................  */
.................... //void *qsort(const void *base, size_t num, size_t width,
.................... //              int (*compare)(const void *, const void *));
.................... 
.................... //---------------------------------------------------------------------------
.................... // Integer arithmetic functions
.................... //---------------------------------------------------------------------------
.................... 
.................... #define labs abs
.................... 
.................... div_t div(signed int numer, signed int denom);
.................... ldiv_t ldiv(signed long numer, signed long denom);
.................... 
.................... //---------------------------------------------------------------------------
.................... // Multibyte character functions
.................... //---------------------------------------------------------------------------
.................... 
.................... // Not supported
.................... 
.................... //---------------------------------------------------------------------------
.................... // Multibyte string functions
.................... //---------------------------------------------------------------------------
.................... 
.................... // Not supported
.................... 
.................... 
.................... //---------------------------------------------------------------------------
.................... // Internal implementation
.................... //---------------------------------------------------------------------------
.................... 
.................... #include <stddef.h>
.................... ///////////////////////////////////////////////////////////////////////////
.................... ////        (C) Copyright 1996,2003 Custom Computer Services           ////
.................... //// This source code may only be used by licensed users of the CCS C  ////
.................... //// compiler.  This source code may only be distributed to other      ////
.................... //// licensed users of the CCS C compiler.  No other use, reproduction ////
.................... //// or distribution is permitted without written permission.          ////
.................... //// Derivative programs created using this software in object code    ////
.................... //// form are not restricted in any way.                               ////
.................... ///////////////////////////////////////////////////////////////////////////
.................... 
.................... #ifndef _STDDEF
.................... 
.................... #define _STDDEF
.................... 
.................... #if sizeof(unsigned int8 *)==1
.................... #define ptrdiff_t unsigned int8
.................... #else
.................... #define ptrdiff_t unsigned int16
.................... #endif
.................... 
.................... #if defined(__PCB__) || defined(__PCM__)
.................... #define size_t unsigned int8
.................... #else
.................... #define size_t unsigned int16
.................... #endif
.................... #define wchar_t unsigned char
.................... #define NULL 0
.................... 
.................... #define offsetof(s,f) (offsetofbit(s,f)/8)
.................... 
.................... #endif
.................... 
.................... #include <string.h>
.................... ////////////////////////////////////////////////////////////////////////////
.................... ////        (C) Copyright 1996,2008 Custom Computer Services            ////
.................... //// This source code may only be used by licensed users of the CCS C   ////
.................... //// compiler.  This source code may only be distributed to other       ////
.................... //// licensed users of the CCS C compiler.  No other use, reproduction  ////
.................... //// or distribution is permitted without written permission.           ////
.................... //// Derivative programs created using this software in object code     ////
.................... //// form are not restricted in any way.                                ////
.................... ////////////////////////////////////////////////////////////////////////////
.................... 
.................... #ifndef _STRING
.................... #define _STRING
.................... #include <stddef.h>
.................... ///////////////////////////////////////////////////////////////////////////
.................... ////        (C) Copyright 1996,2003 Custom Computer Services           ////
.................... //// This source code may only be used by licensed users of the CCS C  ////
.................... //// compiler.  This source code may only be distributed to other      ////
.................... //// licensed users of the CCS C compiler.  No other use, reproduction ////
.................... //// or distribution is permitted without written permission.          ////
.................... //// Derivative programs created using this software in object code    ////
.................... //// form are not restricted in any way.                               ////
.................... ///////////////////////////////////////////////////////////////////////////
.................... 
.................... #ifndef _STDDEF
.................... 
.................... #define _STDDEF
.................... 
.................... #if sizeof(unsigned int8 *)==1
.................... #define ptrdiff_t unsigned int8
.................... #else
.................... #define ptrdiff_t unsigned int16
.................... #endif
.................... 
.................... #if defined(__PCB__) || defined(__PCM__)
.................... #define size_t unsigned int8
.................... #else
.................... #define size_t unsigned int16
.................... #endif
.................... #define wchar_t unsigned char
.................... #define NULL 0
.................... 
.................... #define offsetof(s,f) (offsetofbit(s,f)/8)
.................... 
.................... #endif
.................... 
.................... #include <ctype.h>
.................... ////////////////////////////////////////////////////////////////////////////
.................... ////        (C) Copyright 1996,2003 Custom Computer Services            ////
.................... //// This source code may only be used by licensed users of the CCS C   ////
.................... //// compiler.  This source code may only be distributed to other       ////
.................... //// licensed users of the CCS C compiler.  No other use, reproduction  ////
.................... //// or distribution is permitted without written permission.           ////
.................... //// Derivative programs created using this software in object code     ////
.................... //// form are not restricted in any way.                                ////
.................... ////////////////////////////////////////////////////////////////////////////
.................... 
.................... #ifndef _CTYPE
.................... #define _CTYPE
.................... 
.................... #define islower(x)  isamong(x,"abcdefghijklmnopqrstuvwxyz")
.................... #define isupper(x)  isamong(x,"ABCDEFGHIJKLMNOPQRSTUVWXYZ")
.................... #define isalnum(x)  isamong(x,"0123456789ABCDEFGHIJKLMNOPQRSTUVWXYZabcdefghijklmnopqrstuvwxyz")
.................... #define isalpha(x)  isamong(x,"ABCDEFGHIJKLMNOPQRSTUVWXYZabcdefghijklmnopqrstuvwxyz")
.................... #define isdigit(x)  isamong(x,"0123456789")
.................... #define isspace(x)  ((x)==' ')
.................... #define isxdigit(x) isamong(x,"0123456789ABCDEFabcdef")
.................... #define iscntrl(x)  ((x)<' ')
.................... #define isprint(x)  ((x)>=' ')
.................... #define isgraph(x)  ((x)>' ')
.................... #define ispunct(x)  (((x)>' ')&&!isalnum(x))
.................... 
.................... #endif
.................... 
.................... 
.................... 
.................... 
.................... 
.................... //////////////////////////////////////////////
.................... //// Uncomment the following define to    ////
.................... //// allow some functions to use a        ////
.................... //// quicker algorithm, but use more ROM  ////
.................... ////                                      ////
.................... //// #define FASTER_BUT_MORE_ROM          ////
.................... //////////////////////////////////////////////
.................... 
.................... 
.................... 
.................... /*Copying functions*/
.................... /* standard template:
....................    void *memmove(void *s1, void *s2, size_t n).
....................    Copies max of n characters safely (not following ending '\0')
....................    from s2 in s1; if s2 has less than n characters, appends 0 */
.................... 
.................... unsigned char *memmove(void *s1,void *s2,size_t n)
.................... {
....................    unsigned char *sc1;
....................    unsigned char *sc2;
....................    sc1=s1;
....................    sc2=s2;
....................    if(sc2<sc1 && sc1 <sc2 +n)
....................       for(sc1+=n,sc2+=n;0<n;--n)
....................          *--sc1=*--sc2;
....................    else
....................       for(;0<n;--n)
....................          *sc1++=*sc2++;
....................   return s1;
....................   }
.................... 
.................... /* Standard template: char *strcpy(char *s1, const char *s2)
....................    copies the string s2 including the null character to s1.
....................    This is a compiler built in to handle the different address
....................    spaces */
.................... 
.................... #define strcopy strcpy
.................... 
.................... /* standard template:
....................    char *strncpy(char *s1, const char *s2, size_t n).
....................    Copies max of n characters (not following ending '\0')
....................    from s2 in s1; if s2 has less than n characters, appends 0 */
.................... 
.................... char *strncpy(char *s1, char *s2, size_t n)
.................... {
....................   char *s;
.................... 
....................   for (s = s1; n > 0 && *s2 != '\0'; n--)
....................      *s++ = *s2++;
....................   for (; n > 0; n--)
....................      *s++ = '\0';
.................... 
....................   return(s1);
.................... }
.................... /***********************************************************/
.................... 
.................... /*concatenation functions*/
.................... /* standard template: char *strcat(char *s1, const char *s2)
.................... appends s2 to s1*/
.................... 
.................... char *strcat(char *s1, char *s2)
.................... {
....................    unsigned char *s;
.................... 
....................    for (s = s1; *s != '\0'; ++s);
....................    while(*s2 != '\0')
....................    {
....................       *s = *s2;
....................       ++s;
....................       ++s2;
....................    }
.................... 
....................    *s = '\0';
....................    return(s1);
.................... }
.................... /* standard template: char *strncat(char *s1, char *s2,size_t n)
.................... appends not more than n characters from s2 to s1*/
.................... 
.................... char *strncat(char *s1, char *s2, size_t n)
.................... {
....................    char *s;
.................... 
....................    for (s = s1; *s != '\0'; ++s);
....................    while(*s2 != '\0' && 0<n)
....................    {
....................       *s = *s2;
....................       ++s;
....................       ++s2;
....................       --n;
....................    }
.................... 
....................    *s = '\0';
....................    return(s1);
.................... }
.................... 
.................... /***********************************************************/
.................... 
.................... 
.................... /*comparison functions*/
.................... /* standard template: signed int memcmp(void *s1, void *s2).
....................    Compares s1 & s2; returns -1 if s1<s2, 0 if s1=s2, 1 if s1>s2 */
.................... 
.................... signed int memcmp(void * s1,void *s2,size_t n)
.................... {
.................... unsigned char *su1, *su2;
.................... for(su1=s1, su2=s2; 0<n; ++su1, ++su2, --n)
.................... {
....................    if(*su1!=*su2)
....................       return ((*su1<*su2)?-1:1);
.................... }
.................... return 0;
.................... }
.................... 
.................... /* standard template: int strcmp(const char *s1, const char *s2).
....................    Compares s1 & s2; returns -1 if s1<s2, 0 if s1=s2, 1 if s1>s2 */
.................... 
.................... signed int strcmp(char *s1, char *s2)
.................... {
....................    for (; *s1 == *s2; s1++, s2++)
....................       if (*s1 == '\0')
....................          return(0);
....................    return((*s1 < *s2) ? -1: 1);
.................... }
.................... /* standard template: int strcoll(const char *s1, const char *s2).
....................    Compares s1 & s2; returns -1 if s1<s2, 0 if s1=s2, 1 if s1>s2 */
.................... 
.................... signed int strcoll(char *s1, char *s2)
.................... {
....................    for (; *s1 == *s2; s1++, s2++)
....................       if (*s1 == '\0')
....................          return(0);
....................    return((*s1 < *s2) ? -1: 1);
.................... }
.................... 
.................... /* standard template:
....................    int strncmp(const char *s1, const char *s2, size_t n).
....................    Compares max of n characters (not following 0) from s1 to s2;
....................    returns same as strcmp */
.................... 
.................... signed int strncmp(char *s1, char *s2, size_t n)
.................... {
....................    for (; n > 0; s1++, s2++, n--)
....................       if (*s1 != *s2)
....................          return((*s1 <*s2) ? -1: 1);
....................       else if (*s1 == '\0')
....................          return(0);
....................    return(0);
.................... }
.................... /* standard template:
....................    int strxfrm(const char *s1, const char *s2, size_t n).
....................    transforms maximum of n characters from s2 and places them into s1, returns number of chars written ot s1.
....................    if s1 is NULL and n is 0, then it returns the length of s2.*/
.................... size_t strxfrm(char *s1, char *s2, size_t n)
.................... {
....................    char c;
....................    size_t n1;
....................    
....................    if (!s1 && !n)
....................       n = -1; //find length
.................... 
....................    n1 = 0;
....................    
....................    for (; n1 < n; n1++)
....................    {
....................       c = *s2++;
....................       if (!c)
....................          break;
....................       if (s1)
....................          *s1++ = c;
....................    }
.................... 
....................   return(n1);
.................... }
.................... 
.................... 
.................... 
.................... 
.................... 
.................... /***********************************************************/
.................... /*Search functions*/
.................... /* standard template: void *memchr(const char *s, int c).
....................    Finds first occurrence of c in n characters of s */
.................... 
.................... char *memchr(void *s,unsigned int8 c,size_t n)
.................... {
....................    char uc;
....................    char *su;
....................    uc=c;
....................    for(su=s;0<n;++su,--n)
....................       if(*su==uc)
....................       return su;
....................    return NULL;
.................... }
.................... 
.................... /* standard template: char *strchr(const char *s, int c).
....................    Finds first occurrence of c in s */
.................... 
.................... char *strchr(char *s, char c)
.................... {
....................    for (; *s != c; s++)
....................       if (*s == '\0')
....................          return(0);
....................    return(s);
.................... }
.................... /* standard template:
....................    size_t strcspn(const char *s1, const char *s2).
....................    Computes length of max initial segment of s1 that
....................    consists entirely of characters NOT from s2*/
.................... 
.................... size_t strcspn(char *s1, char *s2)
.................... {
....................    char *sc1, *sc2;
.................... 
....................    for (sc1 = s1; *sc1 != 0; sc1++)
....................       for (sc2 = s2; *sc2 != 0; sc2++)
....................          if (*sc1 == *sc2)
....................             return(sc1 - s1);
....................    return(sc1 - s1);
.................... }
.................... /* standard template:
....................    char *strpbrk(const char *s1, const char *s2).
....................    Locates first occurence of any character from s2 in s1;
....................    returns s1 if s2 is empty string */
.................... 
.................... char *strpbrk(char *s1, char *s2)
.................... {
....................    char *sc1, *sc2;
.................... 
....................    for (sc1 = s1; *sc1 != 0; sc1++)
....................       for (sc2 = s2; *sc2 != 0; sc2++)
....................          if (*sc1 == *sc2)
....................             return(sc1);
....................    return(0);
.................... }
.................... 
.................... 
.................... /* standard template: char *strrchr(const char *s, int c).
....................    Finds last occurrence of c in s */
.................... 
.................... char *strrchr(char *s, char c)
.................... {
....................    char *p;
.................... 
....................    for (p = 0; ; s++)
....................    {
....................       if (*s == c)
....................          p = s;
....................       if (*s == '\0')
....................          return(p);
....................    }
.................... }
.................... /* computes length of max initial segment of s1 consisting
....................    entirely of characters from s2 */
.................... 
.................... size_t strspn(char *s1, char *s2)
.................... {
....................    char *sc1, *sc2;
.................... 
....................    for (sc1 = s1; *sc1 != 0; sc1++)
....................       for (sc2 = s2; ; sc2++)
....................     if (*sc2 == '\0')
....................        return(sc1 - s1);
....................          else if (*sc1 == *sc2)
....................             break;
....................    return(sc1 - s1);
.................... }
.................... /* standard template:
....................    char *strstr(const char *s1, const char *s2);
....................    Locates first occurence of character sequence s2 in s1;
....................    returns 0 if s2 is empty string
.................... 
....................    Uncomment #define FASTER_BUT_MORE_ROM at the top of the
....................    file to use the faster algorithm */
.................... char *strstr(char *s1, char *s2)
.................... {
....................    char *s, *t;
.................... 
....................    #ifdef FASTER_BUT_MORE_ROM
....................    if (*s2 == '\0')
....................          return(s1);
....................    #endif
.................... 
....................    while (*s1)
....................    {
....................       for(s = s1, t = s2; *t && (*s == *t); ++s, ++t);
.................... 
....................       if (*t == '\0')
....................          return s1;
....................       ++s1;
....................       #ifdef FASTER_BUT_MORE_ROM
....................          while(*s1 != '\0' && *s1 != *s2)
....................             ++s1;
....................       #endif
....................    }
....................    return 0;
.................... }
.................... 
.................... /* standard template: size_t strlen(const char *s).
....................    Computes length of s1 (preceding terminating 0) */
.................... 
.................... size_t strlen(char *s)
.................... {
....................    char *sc;
.................... 
....................    for (sc = s; *sc != 0; sc++);
*
04006:  MOVFF  5D2,5D4
0400A:  MOVFF  5D1,5D3
0400E:  MOVFF  5D4,FEA
04012:  MOVLB  5
04014:  MOVFF  5D3,FE9
04018:  MOVF   FEF,F
0401A:  BZ    4028
0401C:  INCF   xD3,F
0401E:  BTFSC  FD8.2
04020:  INCF   xD4,F
04022:  MOVLB  0
04024:  BRA    400E
04026:  MOVLB  5
....................    return(sc - s);
04028:  MOVF   xD1,W
0402A:  SUBWF  xD3,W
0402C:  MOVWF  00
0402E:  MOVF   xD2,W
04030:  SUBWFB xD4,W
04032:  MOVWF  03
04034:  MOVFF  00,01
04038:  MOVWF  02
0403A:  MOVLB  0
0403C:  GOTO   45C6 (RETURN)
.................... }
.................... 
.................... /* standard template: char *strtok(char *s1, const char *s2).
.................... 
....................    Finds next token in s1 delimited by a character from separator
....................    string s2 (which can be different from call to call).  First call
....................    starts at beginning of s1 searching for first character NOT
....................    contained in s2; returns 0 if none is found.
....................    If one is found, it is the start of first token (return value).
....................    Function then searches from there for a character contained in s2.
....................    If none is found, current token extends to end of s1, and subsequent
....................    searches for a token will return 0.  If one is found, it is
....................    overwritten by '\0', which terminates current token.  Function saves
....................    pointer to following character from which next search will start.
....................    Each subsequent call, with 0 as first argument, starts searching
....................    from saved pointer */
.................... 
.................... char *strtok(char *s1, char *s2)
.................... {
....................    char *beg, *end;
....................    static char *save;
.................... 
....................    beg = (s1)? s1: save;
....................    beg += strspn(beg, s2);
....................    if (*beg == '\0')
....................       return(0);
....................       
....................    end = strpbrk(beg, s2);
....................    if (end != '\0')
....................    {
....................       *end = '\0';
....................       end++;
....................       save = end;
....................    }
....................    else
....................       save = beg + strlen(beg);
....................    
....................    return(beg);
.................... }
.................... 
.................... /*****************************************************************/
.................... /*Miscellaneous functions*/
.................... /* standard template
.................... maps error number in errnum to an error message string
.................... Returns: Pointer to string
.................... */
.................... #ifdef _ERRNO
.................... char * strerror(unsigned int8 errnum)
.................... {
.................... static unsigned char s[13];
.................... switch( errnum)
.................... {
.................... case 0:
....................    strcpy(s,"no errors");
....................    return s;
.................... case EDOM :
....................    strcpy(s,"domain error");
....................    return s;
.................... case ERANGE:
....................    strcpy(s,"range error");
....................    return s;
.................... }
.................... }
.................... #ENDIF
.................... 
.................... /* standard template: size_t stricmp(const char *s1, const char *s2).
....................    Compares s1 to s2 ignoring case (upper vs. lower) */
.................... 
.................... signed int stricmp(char *s1, char *s2)
.................... {
....................  for(; *s1==*s2||(isalpha(*s1)&&isalpha(*s2)&&((char)*s1==(char)*s2+(char)32||(char)*s2==(char)*s1+(char)32));
....................     s1++, s2++)
....................     if (*s1 == '\0')
....................        return(0);
....................  return((*s1 < *s2) ? -1: 1);
.................... }
.................... 
.................... 
.................... /* standard template: char *strlwr(char *s).
....................    Replaces uppercase letters by lowercase;
....................    returns pointer to new string s */
.................... 
.................... char *strlwr(char *s)
.................... {
....................    char *p;
.................... 
....................    for (p = s; *p != '\0'; p++)
....................       if (*p >= 'A' && *p <='Z')
....................          *p += 'a' - 'A';
....................    return(s);
.................... }
.................... 
.................... /* standard template: char *strupr(char *s).
....................    Replaces lowercase letters by upercase;
....................    returns pointer to new string s */
.................... 
.................... char *strupr(char *s)
.................... {
....................    char *p;
.................... 
....................    for (p = s; *p != '\0'; p++)
....................       if (*p >= 'a' && *p <='z')
....................          *p -= 'a' - 'A';
....................    return(s);
.................... }
.................... 
.................... 
.................... /************************************************************/
.................... 
.................... 
.................... #endif
.................... 
.................... 
.................... div_t div(signed int numer, signed int denom)
.................... {
....................    div_t val;
....................    val.quot = numer / denom;
....................    val.rem = numer - (denom * val.quot);
....................    return (val);
.................... }
.................... 
.................... ldiv_t ldiv(signed long numer, signed long denom)
.................... {
....................    ldiv_t val;
.................... 
....................    val.quot = numer / denom;
....................    val.rem = numer - (denom * val.quot);
....................    return (val);
.................... }
.................... 
.................... #if defined(__PCD__)
.................... float32 atoe(char * s)
.................... {
....................    float32 pow10 = 1.0;
....................    float32 result = 0.0;
....................    unsigned int8 sign = 0;
....................    unsigned int8 expsign = 0;
....................    char c;
....................    unsigned int8 ptr = 0;
....................    unsigned int8 i;
....................    float32 exp = 1.0;
....................    unsigned int8 expcnt = 0;
.................... 
....................    c = s[ptr++];
.................... 
....................    if ((c>='0' && c<='9') || c=='+' || c=='-' || c=='.' || c=='E' || c=='e') {
....................       if(c == '-') {
....................          sign = 1;
....................          c = s[ptr++];
....................       }
....................       if(c == '+')
....................          c = s[ptr++];
.................... 
....................       while((c >= '0' && c <= '9')) {
....................          result = 10*result + c - '0';
....................          c = s[ptr++];
....................       }
.................... 
....................       if (c == '.') {
....................          c = s[ptr++];
....................          while((c >= '0' && c <= '9')) {
....................              pow10 = pow10*10;
....................              result += (c - '0')/pow10;
....................              c = s[ptr++];
....................          }
....................       }
.................... 
....................       // Handling the exponent
....................       if (c=='e' || c=='E') {
....................          c = s[ptr++];
.................... 
....................          if(c == '-') {
....................             expsign = 1;
....................             c = s[ptr++];
....................          }
....................          if(c == '+')
....................             c = s[ptr++];
.................... 
....................          while((c >= '0' && c <= '9')) {
....................             expcnt = 10*expcnt + c - '0';
....................             c = s[ptr++];
....................          }
.................... 
....................          for(i=0;i<expcnt;i++)
....................             exp*=10;
.................... 
....................          if(expsign==1)
....................             result/=exp;
....................          else
....................             result*=exp;
....................       }
....................    }
.................... 
....................    if (sign == 1)
....................       result = -1*result;
....................    return(result);
.................... }
.................... #endif
.................... 
.................... #if !defined(__PCD__)
.................... float atoe(char * s)
.................... {
....................    float pow10 = 1.0;
....................    float result = 0.0;
....................    unsigned int8 sign = 0;
....................    unsigned int8 expsign = 0;
....................    char c;
....................    unsigned int8 ptr = 0;
....................    unsigned int8 i;
....................    float exp = 1.0;
....................    unsigned int8 expcnt = 0;
.................... 
....................    c = s[ptr++];
.................... 
....................    if ((c>='0' && c<='9') || c=='+' || c=='-' || c=='.' || c=='E' || c=='e') {
....................       if(c == '-') {
....................          sign = 1;
....................          c = s[ptr++];
....................       }
....................       if(c == '+')
....................          c = s[ptr++];
.................... 
....................       while((c >= '0' && c <= '9')) {
....................          result = 10*result + c - '0';
....................          c = s[ptr++];
....................       }
.................... 
....................       if (c == '.') {
....................          c = s[ptr++];
....................          while((c >= '0' && c <= '9')) {
....................              pow10 = pow10*10;
....................              result += (c - '0')/pow10;
....................              c = s[ptr++];
....................          }
....................       }
.................... 
....................       // Handling the exponent
....................       if (c=='e' || c=='E') {
....................          c = s[ptr++];
.................... 
....................          if(c == '-') {
....................             expsign = 1;
....................             c = s[ptr++];
....................          }
....................          if(c == '+')
....................             c = s[ptr++];
.................... 
....................          while((c >= '0' && c <= '9')) {
....................             expcnt = 10*expcnt + c - '0';
....................             c = s[ptr++];
....................          }
.................... 
....................          for(i=0;i<expcnt;i++)
....................             exp*=10;
.................... 
....................          if(expsign==1)
....................             result/=exp;
....................          else
....................             result*=exp;
....................       }
....................    }
.................... 
....................    if (sign == 1)
....................       result = -1*result;
....................    return(result);
.................... }
.................... #endif
.................... 
.................... signed int atoi(char *s)
.................... {
....................    signed int result;
....................    unsigned int sign, base, index;
....................    char c;
.................... 
....................    index = 0;
....................    sign = 0;
....................    base = 10;
....................    result = 0;
.................... 
....................    if (!s)
....................       return 0;
....................    // Omit all preceeding alpha characters
....................    c = s[index++];
.................... 
....................    // increase index if either positive or negative sign is detected
....................    if (c == '-')
....................    {
....................       sign = 1;         // Set the sign to negative
....................       c = s[index++];
....................    }
....................    else if (c == '+')
....................    {
....................       c = s[index++];
....................    }
.................... 
....................    if (c >= '0' && c <= '9')
....................    {
.................... 
....................       // Check for hexa number
....................       if (c == '0' && (s[index] == 'x' || s[index] == 'X'))
....................       {
....................          base = 16;
....................          index++;
....................          c = s[index++];
....................       }
.................... 
....................       // The number is a decimal number
....................       if (base == 10)
....................       {
....................          while (c >= '0' && c <= '9')
....................          {
....................             result = 10*result + (c - '0');
....................             c = s[index++];
....................          }
....................       }
....................       else if (base == 16)    // The number is a hexa number
....................       {
....................          c = toupper(c);
....................          while ( (c >= '0' && c <= '9') || (c >= 'A' && c<='F'))
....................          {
....................             if (c >= '0' && c <= '9')
....................                result = (result << 4) + (c - '0');
....................             else
....................                result = (result << 4) + (c - 'A' + 10);
.................... 
....................             c = s[index++];
....................             c = toupper(c);
....................          }
....................       }
....................    }
.................... 
....................    if (sign == 1 && base == 10)
....................        result = -result;
.................... 
....................    return(result);
.................... }
.................... 
.................... signed long atol(char *s)
.................... {
....................    signed long result;
....................    unsigned int sign, base, index;
....................    char c;
.................... 
....................    index = 0;
....................    sign = 0;
....................    base = 10;
....................    result = 0;
.................... 
....................    if (!s)
....................       return 0;
....................    c = s[index++];
.................... 
....................    // increase index if either positive or negative sign is detected
....................    if (c == '-')
....................    {
....................       sign = 1;         // Set the sign to negative
....................       c = s[index++];
....................    }
....................    else if (c == '+')
....................    {
....................       c = s[index++];
....................    }
.................... 
....................    if (c >= '0' && c <= '9')
....................    {
....................       if (c == '0' && (s[index] == 'x' || s[index] == 'X'))
....................       {
....................          base = 16;
....................          index++;
....................          c = s[index++];
....................       }
.................... 
....................       // The number is a decimal number
....................       if (base == 10)
....................       {
....................          while (c >= '0' && c <= '9')
....................          {
....................             result = 10*result + (c - '0');
....................             c = s[index++];
....................          }
....................       }
....................       else if (base == 16)    // The number is a hexa number
....................       {
....................          c = toupper(c);
....................          while ( (c >= '0' && c <= '9') || (c >= 'A' && c <='F'))
....................          {
....................             if (c >= '0' && c <= '9')
....................                result = (result << 4) + (c - '0');
....................             else
....................                result = (result << 4) + (c - 'A' + 10);
.................... 
....................             c = s[index++];c = toupper(c);
....................          }
....................       }
....................    }
.................... 
....................    if (base == 10 && sign == 1)
....................       result = -result;
.................... 
....................    return(result);
.................... }
.................... 
.................... /* A fast routine to multiply by 10
....................  */
.................... signed int32 mult_with10(int32 num)
.................... {
....................    return ( (num << 1) + (num << 3) );
.................... }
.................... 
.................... #if sizeof(long)==2
.................... signed int32 atoi32(char *s)
.................... {
....................    signed int32 result;
....................    int8 sign, base, index;
....................    char c;
.................... 
....................    index = 0;
....................    sign = 0;
....................    base = 10;
....................    result = 0;
.................... 
....................    if (!s)
....................       return 0;
....................    c = s[index++];
.................... 
....................    // increase index if either positive or negative sign is detected
....................    if (c == '-')
....................    {
....................       sign = 1;         // Set the sign to negative
....................       c = s[index++];
....................    }
....................    else if (c == '+')
....................    {
....................       c = s[index++];
....................    }
.................... 
....................    if (c >= '0' && c <= '9')
....................    {
....................       if (c == '0' && (s[index] == 'x' || s[index] == 'X'))
....................       {
....................          base = 16;
....................          index++;
....................          c = s[index++];
....................       }
.................... 
....................       // The number is a decimal number
....................       if (base == 10)
....................       {
....................          while (c >= '0' && c <= '9') {
....................             result = (result << 1) + (result << 3);  // result *= 10;
....................             result += (c - '0');
....................             c = s[index++];
....................          }
....................       }
....................       else if (base == 16)    // The number is a hexa number
....................       {
....................          c = toupper(c);
....................          while ((c >= '0' && c <= '9') || (c >= 'A' && c <='F'))
....................          {
....................             if (c >= '0' && c <= '9')
....................                result = (result << 4) + (c - '0');
....................             else
....................                result = (result << 4) + (c - 'A' + 10);
.................... 
....................             c = s[index++];c = toupper(c);
....................          }
....................       }
....................    }
.................... 
....................    if (base == 10 && sign == 1)
....................       result = -result;
.................... 
....................    return(result);
.................... }
.................... #endif
.................... 
.................... #if defined(__PCD__)
.................... 
.................... signed int48 atoi48(char *s)
.................... {
....................    signed int48 result;
....................    int8 sign, base, index;
....................    char c;
.................... 
....................    index = 0;
....................    sign = 0;
....................    base = 10;
....................    result = 0;
.................... 
....................    if (!s)
....................       return 0;
....................    c = s[index++];
.................... 
....................    // increase index if either positive or negative sign is detected
....................    if (c == '-')
....................    {
....................       sign = 1;         // Set the sign to negative
....................       c = s[index++];
....................    }
....................    else if (c == '+')
....................    {
....................       c = s[index++];
....................    }
.................... 
....................    if (c >= '0' && c <= '9')
....................    {
....................       if (c == '0' && (s[index] == 'x' || s[index] == 'X'))
....................       {
....................          base = 16;
....................          index++;
....................          c = s[index++];
....................       }
.................... 
....................       // The number is a decimal number
....................       if (base == 10)
....................       {
....................          while (c >= '0' && c <= '9') {
....................             result = (result << 1) + (result << 3);  // result *= 10;
....................             result += (c - '0');
....................             c = s[index++];
....................          }
....................       }
....................       else if (base == 16)    // The number is a hexa number
....................       {
....................          c = toupper(c);
....................          while ((c >= '0' && c <= '9') || (c >= 'A' && c <='F'))
....................          {
....................             if (c >= '0' && c <= '9')
....................                result = (result << 4) + (c - '0');
....................             else
....................                result = (result << 4) + (c - 'A' + 10);
.................... 
....................             c = s[index++];c = toupper(c);
....................          }
....................       }
....................    }
.................... 
....................    if (base == 10 && sign == 1)
....................       result = -result;
.................... 
....................    return(result);
.................... }
.................... 
.................... signed int64 atoi64(char *s)
.................... {
....................    signed int64 result;
....................    int8 sign, base, index;
....................    char c;
.................... 
....................    index = 0;
....................    sign = 0;
....................    base = 10;
....................    result = 0;
.................... 
....................    if (!s)
....................       return 0;
....................    c = s[index++];
.................... 
....................    // increase index if either positive or negative sign is detected
....................    if (c == '-')
....................    {
....................       sign = 1;         // Set the sign to negative
....................       c = s[index++];
....................    }
....................    else if (c == '+')
....................    {
....................       c = s[index++];
....................    }
.................... 
....................    if (c >= '0' && c <= '9')
....................    {
....................       if (c == '0' && (s[index] == 'x' || s[index] == 'X'))
....................       {
....................          base = 16;
....................          index++;
....................          c = s[index++];
....................       }
.................... 
....................       // The number is a decimal number
....................       if (base == 10)
....................       {
....................          while (c >= '0' && c <= '9') {
....................             result = (result << 1) + (result << 3);  // result *= 10;
....................             result += (c - '0');
....................             c = s[index++];
....................          }
....................       }
....................       else if (base == 16)    // The number is a hexa number
....................       {
....................          c = toupper(c);
....................          while ((c >= '0' && c <= '9') || (c >= 'A' && c <='F'))
....................          {
....................             if (c >= '0' && c <= '9')
....................                result = (result << 4) + (c - '0');
....................             else
....................                result = (result << 4) + (c - 'A' + 10);
.................... 
....................             c = s[index++];c = toupper(c);
....................          }
....................       }
....................    }
.................... 
....................    if (base == 10 && sign == 1)
....................       result = -result;
.................... 
....................    return(result);
.................... }
.................... #endif
.................... 
.................... char * itoa(signed int32 num, unsigned int base, char * s)
.................... {
....................      unsigned int32 temp=1;
....................      unsigned int8 i,sign=0,cnt=0;
....................      char c;
.................... 
....................      if(num<0) {
....................          sign=1;        // Check for negative number
....................          num*=-1;
....................      }
.................... 
....................      while(temp>0) {
....................          temp=(num/base);
....................          s[cnt]=(num%base)+'0';    // Conversion
.................... 
....................          if(s[cnt]>0x39)
....................             s[cnt]+=0x7;
.................... 
....................          cnt++;
....................          num=temp;
....................      }
.................... 
....................      if(sign==1) {
....................          s[cnt]=0x2D;      // Negative sign
....................          cnt++;
....................      }
.................... 
....................      for(i = 0;i<(int8)(cnt/2);i++) {
.................... 
....................          c=s[i];
....................          s[i]=s[cnt-i-1];        // Reverse the number
....................          s[cnt-i-1]=c;
....................      }
....................      s[cnt]='\0';     // End the string
....................      return s;
.................... }
.................... 
.................... #if defined(__PCD__)
.................... 
.................... char * itoa(signed int48 num, unsigned int base, char * s)
.................... {
....................      unsigned int48 temp=1;
....................      unsigned int8 i,sign=0,cnt=0;
....................      char c;
.................... 
....................      if(num<0) {
....................          sign=1;        // Check for negative number
....................          num*=-1;
....................      }
.................... 
....................      while(temp>0) {
....................          temp=(num/base);
....................          s[cnt]=(num%base)+'0';    // Conversion
.................... 
....................          if(s[cnt]>0x39)
....................             s[cnt]+=0x7;
.................... 
....................          cnt++;
....................          num=temp;
....................      }
.................... 
....................      if(sign==1) {
....................          s[cnt]=0x2D;      // Negative sign
....................          cnt++;
....................      }
.................... 
....................      for(i = 0;i<(int8)(cnt/2);i++) {
.................... 
....................          c=s[i];
....................          s[i]=s[cnt-i-1];        // Reverse the number
....................          s[cnt-i-1]=c;
....................      }
....................      s[cnt]='\0';     // End the string
....................      return s;
.................... }
.................... 
.................... char * itoa(signed int64 num, unsigned int base, char * s)
.................... {
....................      unsigned int64 temp=1;
....................      unsigned int8 i,sign=0,cnt=0;
....................      char c;
....................      
....................      if(num<0) {
....................          sign=1;        // Check for negative number
....................          num*=-1;        
....................      }
.................... 
....................      while(temp>0) {
....................          temp=(num/base);
....................          s[cnt]=(num%base)+'0';    // Conversion
.................... 
....................          if(s[cnt]>0x39)
....................             s[cnt]+=0x7;
....................             
....................          cnt++;
....................          num=temp;
....................      }
.................... 
....................      if(sign==1) {
....................          s[cnt]=0x2D;      // Negative sign
....................          cnt++;
....................      }
.................... 
....................      for(i = 0;i<(int8)(cnt/2);i++) {
.................... 
....................          c=s[i];
....................          s[i]=s[cnt-i-1];        // Reverse the number
....................          s[cnt-i-1]=c;
....................      }
....................      s[cnt]='\0';     // End the string
....................      return s;
.................... }
.................... 
.................... #endif
.................... 
.................... float strtof(char *s, char **endptr)
.................... {
....................    float pow10 = 1.0;
....................    float result = 0.0;
....................    int1 skip = 1, sign = 0, point = 0;
....................    char c;
....................    unsigned int8 ptr = 0;
.................... 
....................    if (!s)
....................       return 0;
.................... 
....................    for(c=s[ptr++]; c!=0; c=s[ptr++])
....................    {
....................       if (skip && !isspace(c))
....................       {
....................          skip = 0;
....................          if (c == '+')
....................          {
....................             sign = 0;
....................             continue;
....................          }            
....................          else if (c == '-')
....................          {
....................             sign = 1;
....................             continue;
....................          }
....................       }
....................       if (!skip && (c == '.') && !point)
....................          point = 1;
....................       else if (!skip && isdigit(c))
....................       {
....................          c -= '0';
....................          if (point)
....................          {
....................             pow10 = pow10 * 10.0;
....................             result += (float)c / pow10;   
....................          }
....................          else
....................          {
....................             result = 10.0 * result + (float)c;
....................          }
....................       }
....................       else if (!skip)
....................          break;
....................    }
.................... 
....................    if (sign)
....................       result = -1*result;
....................       
....................    if(endptr)
....................    {
....................       if (ptr) {
....................          ptr--;
....................        #IF LONG_POINTERS 
....................          *((int16 *)endptr)= s+ptr; 
....................        #ELSE
....................          *((char *)endptr)=s+ptr;
....................        #ENDIF
....................       }
....................       else
....................       {
....................       #IF LONG_POINTERS
....................       *((int16 *)endptr)= s; 
....................       #ELSE
....................       *((char *)endptr)=s;
....................       #ENDIF
....................       }
....................    }
.................... 
....................    return(result);
.................... }
.................... 
.................... #if defined(__PCD__)
.................... float48 strtof48(char *s, char **endptr)
.................... {
....................    float48 pow10 = 1.0;
....................    float48 result = 0.0;
....................    int1 skip = 1, sign = 0, point = 0;
....................    char c;
....................    unsigned int8 ptr = 0;
.................... 
....................    if (!s)
....................       return 0;
.................... 
....................    for(c=s[ptr++]; c!=0; c=s[ptr++])
....................    {
....................       if (skip && !isspace(c))
....................       {
....................          skip = 0;
....................          if (c == '+')
....................          {
....................             sign = 0;
....................             continue;
....................          }            
....................          else if (c == '-')
....................          {
....................             sign = 1;
....................             continue;
....................          }
....................       }
....................       if (!skip && (c == '.') && !point)
....................          point = 1;
....................       else if (!skip && isdigit(c))
....................       {
....................          c -= '0';
....................          if (point)
....................          {
....................             pow10 = pow10 * 10.0;
....................             result += (float48)c / pow10;   
....................          }
....................          else
....................          {
....................             result = 10.0 * result + (float48)c;
....................          }
....................       }
....................       else if (!skip)
....................          break;
....................    }
.................... 
....................    if (sign)
....................       result = -1*result;
....................       
....................    if(endptr)
....................    {
....................       if (ptr) {
....................          ptr--;
....................        #IF LONG_POINTERS 
....................          *((int16 *)endptr)= s+ptr; 
....................        #ELSE
....................          *((char *)endptr)=s+ptr;
....................        #ENDIF
....................       }
....................       else
....................       {
....................       #IF LONG_POINTERS
....................       *((int16 *)endptr)= s; 
....................       #ELSE
....................       *((char *)endptr)=s;
....................       #ENDIF
....................       }
....................    }
.................... 
....................    return(result);
.................... }
.................... 
.................... float64 strtod(char *s, char **endptr)
.................... {
....................    float64 pow10 = 1.0;
....................    float64 result = 0.0;
....................    int1 skip = 1, sign = 0, point = 0;
....................    char c;
....................    unsigned int8 ptr = 0;
.................... 
....................    if (!s)
....................       return 0;
.................... 
....................    for(c=s[ptr++]; c!=0; c=s[ptr++])
....................    {
....................       if (skip && !isspace(c))
....................       {
....................          skip = 0;
....................          if (c == '+')
....................          {
....................             sign = 0;
....................             continue;
....................          }            
....................          else if (c == '-')
....................          {
....................             sign = 1;
....................             continue;
....................          }
....................       }
....................       if (!skip && (c == '.') && !point)
....................          point = 1;
....................       else if (!skip && isdigit(c))
....................       {
....................          c -= '0';
....................          if (point)
....................          {
....................             pow10 = pow10 * 10.0;
....................             result += (float64)c / pow10;   
....................          }
....................          else
....................          {
....................             result = 10.0 * result + (float64)c;
....................          }
....................       }
....................       else if (!skip)
....................          break;
....................    }
.................... 
....................    if (sign)
....................       result = -1*result;
....................       
....................    if(endptr)
....................    {
....................       if (ptr) {
....................          ptr--;
....................        #IF LONG_POINTERS 
....................          *((int16 *)endptr)= s+ptr; 
....................        #ELSE
....................          *((char *)endptr)=s+ptr;
....................        #ENDIF
....................       }
....................       else
....................       {
....................       #IF LONG_POINTERS
....................       *((int16 *)endptr)= s; 
....................       #ELSE
....................       *((char *)endptr)=s;
....................       #ENDIF
....................       }
....................    }
.................... 
....................    return(result);
.................... }
.................... #endif
.................... 
.................... #ifndef __PCB__
.................... unsigned long strtoul(char *s, char *endptr, signed int base)
.................... {
....................    char *sc,*s1,*sd;
....................    unsigned long x=0;
....................    char sign;
....................    char digits[]="0123456789abcdefghijklmnopqstuvwxyz";
....................    for(sc=s;isspace(*sc);++sc);
....................    sign=*sc=='-'||*sc=='+'?*sc++:'+';
....................    if(sign=='-' || base <0 || base ==1|| base >36) // invalid base
....................    goto StrtoulGO;
.................... 
....................    else if (base)
....................    {
....................       if(base==16 && *sc =='0'&&(sc[1]=='x' || sc[1]=='X'))
....................          sc+=2;
....................       if(base==8 && *sc =='0')
....................          sc+=1;
....................       if(base==2 && *sc =='0'&&sc[1]=='b')
....................          sc+=2;
.................... 
....................    }
....................    else if(*sc!='0') // base is 0, find base
....................       base=10;
....................    else if (sc[1]=='x' || sc[1]=='X')
....................       base =16,sc+=2;
....................    else if(sc[1]=='b')
....................       base=2,sc+=2;
....................    else
....................       base=8;
....................    for (s1=sc;*sc=='0';++sc);// skip leading zeroes
....................    sd=memchr(digits,tolower(*sc),base);
....................    for(; sd!=0; )
....................    {
....................       x=x*base+(int16)(sd-digits);
....................       ++sc;
....................       sd=memchr(digits,tolower(*sc),base);
....................    }
....................    if(s1==sc)
....................    {
....................    StrtoulGO:
....................       if (endptr)
....................       {
....................          #IF LONG_POINTERS
....................          *((int16 *)endptr)= s; 
....................          #ELSE
....................          *((char *)endptr)=s;
....................          #ENDIF
....................          }
....................    return 0;
....................    }
....................    if (endptr)
....................    {
....................          #IF LONG_POINTERS
....................          *((int16 *)endptr)= sc; 
....................          #ELSE
....................          *((char *)endptr)=sc; 
....................          #ENDIF
....................    }
....................    return x;
.................... }
.................... 
.................... 
.................... signed long strtol(char *s,char *endptr, signed int base)
.................... {
....................    char *sc,*s1,*sd;
....................    signed long x=0;
....................    char sign;
....................    char digits[]="0123456789abcdefghijklmnopqstuvwxyz";
....................    for(sc=s;isspace(*sc);++sc);
....................    sign=*sc=='-'||*sc=='+'?*sc++:'+';
....................    if (base <0 || base ==1|| base >36) // invalid base
....................    goto StrtolGO;
....................    else if (base)
....................    {
....................       if(base==16 && *sc =='0'&&(sc[1]=='x' || sc[1]=='X'))
....................          sc+=2;
....................       if(base==8 && *sc =='0')
....................          sc+=1;
....................       if(base==2 && *sc =='0'&&sc[1]=='b')
....................          sc+=2;
.................... 
....................    }
....................    else if(*sc!='0') // base is 0, find base
....................       base=10;
....................    else if (sc[1]=='x' || sc[1]=='X')
....................       base =16,sc+=2;
....................    else if(sc[1]=='b')
....................       base=2,sc+=2;
....................    else
....................       base=8;
....................    for (s1=sc;*sc=='0';++sc);// skip leading zeroes
.................... 
....................    sd=memchr(digits,tolower(*sc),base);
....................    for(;sd!=0;)
....................    {
....................       x=x*base+(int16)(sd-digits);
....................       ++sc;
....................       sd=memchr(digits,tolower(*sc),base);
....................    }
....................    if(s1==sc)
....................    {
....................    StrtolGO:
....................       if (endptr)
....................       {
....................          #IF LONG_POINTERS
....................          *((int16 *)endptr)= s; 
....................          #ELSE
....................          *((char *)endptr)=s;
....................          #ENDIF
....................       }
....................    return 0;
....................    }
....................    if(sign=='-')
....................       x  =-x;
....................    if (endptr)
....................    {
....................         #IF LONG_POINTERS
....................          *((int16 *)endptr)= sc; 
....................         #ELSE
....................         *((char *)endptr)=sc;
....................         #ENDIF
....................    }
....................    return x;
.................... }
.................... #endif
.................... 
.................... signed int8 system(char *string)
.................... {
....................    return 0;
.................... }
.................... 
.................... size_t mblen(char *s,size_t n)
.................... {
....................    return strlen(s);
.................... }
.................... 
.................... int8 mbtowc(wchar_t *pwc,char *s,size_t n)
.................... {
....................    *pwc=*s;
....................    return 1;
.................... }
.................... 
.................... int8 wctomb(char *s,wchar_t wchar)
.................... {
....................    *s=wchar;
....................    return 1;
.................... }
.................... 
.................... size_t mbstowcs(wchar_t *pwcs,char *s,size_t n)
.................... {
....................    strncpy((char *)pwcs,s,n);
....................    return strlen((char *)pwcs);
.................... }
.................... 
.................... size_t wcstombs(char *s,wchar_t *pwcs,size_t n)
.................... {
....................    strncpy(s,(char *)pwcs,n);
....................    return strlen(s);
.................... }
.................... 
.................... //---------------------------------------------------------------------------
.................... // The random number implementation
.................... //---------------------------------------------------------------------------
.................... 
.................... unsigned int32 _Randseed;
.................... 
.................... unsigned int16 rand(void)
.................... {
....................    _Randseed = _Randseed * 1103515245 + 12345;
....................    return ((unsigned int16)(_Randseed >> 16) % RAND_MAX);
.................... }
.................... 
.................... void srand(unsigned int32 seed)
.................... {
....................    _Randseed = seed;
.................... }
.................... 
.................... //---------------------------------------------------------------------------
.................... // Searching and sorting utilities implementation
.................... //---------------------------------------------------------------------------
.................... 
.................... #if !defined(__PCD__)
.................... typedef signed int8 (*_Cmpfun)(char * p1,char * p2); 
.................... #else 
.................... typedef signed int16 (*_Cmpfun)(char * p1,char * p2); 
.................... #endif
.................... 
.................... 
.................... 
.................... void qsort(char * qdata, unsigned int qitems, unsigned int qsize, _Cmpfun cmp) {
....................    unsigned int m,j,i,l;
....................    int1 done;
....................    unsigned int8 t[16];
.................... 
....................    m = qitems/2;
....................    while( m > 0 ) {
....................      for(j=0; j<(qitems-m); ++j) {
....................         i = j;
....................         do
....................         {
....................            done=1;
....................            l = i+m;
....................            if( (*cmp)(qdata+i*qsize, qdata+l*qsize) > 0 ) {
....................               memcpy(t, qdata+i*qsize, qsize);
....................               memcpy(qdata+i*qsize, qdata+l*qsize, qsize);
....................               memcpy(qdata+l*qsize, t, qsize);
....................               if(m <= i)
....................                 i -= m;
....................                 done = 0;
....................            }
....................         } while(!done);
....................      }
....................      m = m/2;
....................    }
.................... }
.................... 
.................... 
.................... char *bsearch(char *key, char *base, size_t num, size_t width,_Cmpfun cmp)
.................... {
....................    char *p, *q;
....................    size_t n;
....................    size_t pivot;
....................    signed int val;
.................... 
....................    p = base;
....................    n = num;
.................... 
....................    while (n > 0)
....................    {
....................       pivot = n >> 1;
....................       q = p + width * pivot;
.................... 
....................       val = (*cmp)(key, q);
.................... 
....................       if (val < 0)
....................          n = pivot;
....................       else if (val == 0)
....................          return ((char *)q);
....................       else {
....................          p = q + width;
....................          n -= pivot + 1;
....................       }
....................    }
.................... 
....................    return NULL;      // There's no match
.................... }
.................... 
.................... 
.................... #endif
.................... 
.................... 
.................... typedef enum channelMap {chX, chY}; // Piezo channels
.................... typedef enum channelMode {MANUAL, MAGSNS}; // Voltage or Magnetic Sensor Control
.................... 
.................... /*****************************************************************************/
.................... /* CAT24C04 EEProm --- page size = 16 bytes, Write when LSB=0 Read when LSB=1*/
.................... /*****************************************************************************/
.................... #ifdef use_ext_eeprom
.................... #define EE_Slave_Addr 0xA0
.................... #define writeProtectPin EE_WP
.................... #define pageSize 16
.................... // EEProm is on 12C bus 1
.................... #use i2c(master, fast, sda=PIN_C4, scl=PIN_C3, FORCE_HW, STREAM=EEPROM)
.................... #endif
.................... 
.................... /*****************************************************************************/
.................... /*****************************************************************************/
.................... /* FUNCTIONS PROTOTYPES START HERE                                           */
.................... /*****************************************************************************/
.................... /*****************************************************************************/
.................... #ifdef use_ext_eeprom
.................... void ee_send_start(unsigned int16 address, BOOLEAN read);
.................... #endif
.................... void ee_save_reg(unsigned int8 *reg, unsigned int16 eeLocation, unsigned int8 length);
.................... void ee_load_reg(unsigned int8 *reg, unsigned int16 eeLocation, unsigned int8 length);
.................... void params_save_to_ee(void);
.................... void params_load_from_ee(void);
.................... void params_init(void);
.................... void params_invalidate(void);
.................... 
.................... /*****************************************************************************/
.................... /*****************************************************************************/
.................... /* PARAMETERS START HERE. All Params should have an EEPROM address that is   */
.................... /* at the start of an EERPOM page.                                           */ 
.................... /*****************************************************************************/
.................... /*****************************************************************************/
.................... 
.................... /*****************************************************************************/
.................... /* PID Parameters                                                            */
.................... /*****************************************************************************/
.................... #define pid_params_ee_addr 0
.................... #define pid_params_length 128  // length in bytes
.................... struct pidParams
.................... {
....................     float kP;      // proportional gain
....................     float kI;      // integral gain
....................     float kD;      // derivative gain
....................     float SP;      // set point-- desired output
....................     float PV;      // process variable-- measured output
....................     float PVold;   // oldPV value  
....................     float CV;      // control variable-- output -- 0 to 100%
....................     float I;       // integral value
....................     float maxSP;   // Max setpoint in microns
....................     float minSP;   // Min setpoint in microns
.................... }PID[2] = {
....................    //  P     I     D
....................     {0.01,   0.3,  0.1, 0,0,0,0,0,0,0}, 
....................     {0.01,   0.3,  0.1, 0,0,0,0,0,0,0}
....................     };
.................... 
.................... /*****************************************************************************/
.................... /* Output Channel Map                                                        */
.................... /*****************************************************************************/
.................... #define channel_map_ee_addr 128
.................... #define channel_map_length 2  // length in bytes
.................... channelMap chMap[2] = {chX, chY};
.................... 
.................... // @FLAG
.................... // #define op_upper_bound 63  // CRYO
.................... // #define op_lower_bound -63 // CRYO
.................... 
.................... #define op_upper_bound 63  // AMBIENT 
.................... #define op_lower_bound -12 // AMBIENT
.................... 
.................... //!#define op_upper_bound 100  // FULL 
.................... //!#define op_lower_bound -100 // FULL
.................... 
.................... 
.................... /*****************************************************************************/
.................... /* Input Channel Mode                                                        */
.................... /*****************************************************************************/
.................... #define channel_mode_ee_addr 144
.................... #define channel_mode_length 2  // length in bytes
.................... channelMode chMode[2] = {MANUAL, MANUAL};
.................... 
.................... /*****************************************************************************/
.................... /* ADC Calibration Constants                                                 */
.................... /*****************************************************************************/
.................... #define adc_cal_params_ee_addr 160
.................... #define adc_cal_params_length 32  // length in bytes
.................... struct adcCalParms
.................... {
....................    float sinOS;
....................    float cosOS;
....................    float sinGain;
....................    float cosGain;
.................... } adcCal[2] = {
....................                 {0,0,1,1},
....................                 {0,0,1,1}
....................               };
.................... 
.................... /*****************************************************************************/
.................... /* Sensor Calibration Constants                                              */
.................... /*****************************************************************************/
.................... #define sensor_cal_params_ee_addr 192
.................... #define sensor_cal_params_length 48  // length in bytes
.................... struct sensorCalParams
.................... {
....................    float c0;
....................    float c1;
....................    float c2;
....................    float c3;
....................    float c4;
....................    float c5;
.................... } sensorCal[2] = {
....................                     {0,-0.97687,0,0,0,0},  // @FLAG: Switched Channels
....................                     {0,-0.99084,0,0,0,0}
....................                  };
.................... 
.................... // fifth order polynomial constants
.................... 
.................... /*****************************************************************************/
.................... /* Monitor Calibration Constants                                             */
.................... /*****************************************************************************/
.................... #define mon_cal_params_ee_addr 240
.................... #define mon_cal_params_length 56  // length in bytes
.................... struct monCalParams
.................... {
....................    float vN15[2];  // offset and gain
....................    float v200[2];
....................    float v5V6[2];
....................    float v5VA[2];
....................    float v3V6X[2];
....................    float v3V3A[2];
....................    float v3V3D[2];
....................    
.................... }monCal = {
....................    {0, -0.02245509}, 
....................    {0,   0.2127659}, 
....................    {0, 0.008432515}, 
....................    {0, 0.008173486}, 
....................    {0, 0.009655914}, 
....................    {0, 0.007094828}, 
....................    {0, 0.007081720}
.................... };
.................... 
.................... /*****************************************************************************/
.................... /* PARAMS Valid                                                              */
.................... /*****************************************************************************/
.................... #define invalidate 0xFF
.................... #define isValid 0xAA
.................... #define params_valid_ee_addr 320
.................... #define params_valid_length 1  // length in bytes
.................... char paramsValid = isValid;
.................... // if data returns isValid from EEPROM then EEPROM has valid data
.................... 
.................... /*****************************************************************************/
.................... /*****************************************************************************/
.................... /* VOLATILE PARAMETERS                                                       */
.................... /*****************************************************************************/
.................... /*****************************************************************************/
.................... struct mv
.................... {
....................    float vN15; // internal voltages
....................    float v200;
....................    float v5V6;
....................    float v5VA;
....................    float v3V6X;
....................    float v3V3A;
....................    float v3V3D;
.................... }monitorVals = {0,0,0,0,0,0,0};
.................... 
.................... struct adcV
.................... {
....................    float sinRaw;           // adc raw count data
....................    float cosRaw;           // adc raw count data
....................    float sinCounts;        // calibrated counts
....................    float cosCounts;        // calibrated counts
....................    float sinLast;          // previous sin data
....................    float cosLast;          // previous cos data
....................    float p0;               // mid-pole position in microns
....................    signed int8  npoles;    // number of poles passed
....................    float pReal;            // real position in microns
....................    float pHome;            // Home position in microns
....................    BOOLEAN homeFlag;       // Flag to trigger the homing routine
.................... }adcVals[2] = 
.................... {
....................    {0,0,0,0,0,0,0,0,0,0,FALSE},
....................    {0,0,0,0,0,0,0,0,0,0,FALSE}
.................... };
.................... 
.................... BOOLEAN adcFilter = FALSE;
.................... 
.................... struct dacV
.................... {
....................     BOOLEAN invV;
....................     unsigned int16 ipVal;
....................     float opPcnt;
....................    
.................... }dacVals[2] = 
.................... {
....................     {FALSE,0,0},
....................     {FALSE,0,0}
.................... };
.................... 
.................... // used with timeouts
.................... unsigned int32 timeoutReg0 = 0; //All timers are defined in milliseconds, 
.................... unsigned int32 timeoutReg1 = 0; //with a resolution of 10ms
.................... unsigned int32 timeoutReg2 = 0;
.................... unsigned int16 intTimeoutReg = 0; // interrupting use for more precise timing
.................... /*****************************************************************************/
.................... /*****************************************************************************/
.................... /* FUNCTIONS START HERE                                                      */
.................... /*****************************************************************************/
.................... /*****************************************************************************/
.................... 
.................... /*****************************************************************************/
.................... /* ee_send_start --- sends the start messsage to the eeprom and set the addr */
.................... /*****************************************************************************/
.................... #ifdef use_ext_eeprom
.................... void ee_send_start(unsigned int16 address, BOOLEAN read = TRUE)
.................... {
....................    unsigned int8 romAddr = (unsigned int8)(address & 0x00FF);
....................    unsigned int8 slaveAddr = EE_Slave_Addr;
....................    #ifdef writeProtectPin
....................    output_low(writeProtectPin); // for write operations, clr WP pin
....................    #endif
....................    if (address > 0xFF) // if address > 8 bits
....................    { //add upper address bits (LSB of slave reserved are R/!W) 
....................       slaveAddr |= (unsigned int8)((address >> 7) & 0x000E) ;   
....................    }
....................    i2c_start(EEPROM);   // send start pulse on bus
....................    delay_ms(1);
....................    i2c_write(EEPROM, slaveAddr); // send slave address with R/!W clr (WRITE)
....................    i2c_write(EEPROM, romAddr); // rom address
....................    if (read) 
....................    {
....................       slaveAddr |= 0x01; // set the read bit
....................       delay_ms(1);
....................       i2c_start(EEPROM);
....................       delay_ms(1);
....................       i2c_write (EEPROM, slaveAddr); // send slave with R!W set (READ)
....................       #ifdef writeProtectPin
....................       output_high(writeProtectPin); // for read operations, set WP pin
....................       #endif
....................    }
.................... }
.................... #endif
.................... /*****************************************************************************/
.................... /* SAVE REGISTER TO EEPROM                                                   */
.................... /* note all registers are saved at a page boundary for simplicity            */
.................... /*****************************************************************************/
.................... void ee_save_reg(unsigned int8 *reg, unsigned int16 eeLocation, unsigned int8 length)
.................... #ifdef use_ext_eeprom
*
003E2:  MOVLB  5
003E4:  CLRF   xD6
.................... {
....................    int pageCnt = length/pageSize;
....................    int lastPageLength = length%pageSize;
....................    
....................    int i = 0; // number of pages to write
....................    int j = 0; // number of characters to write on last page
....................    
....................    for ( i = 0; i < pageCnt ; i++)  // pages to writes
....................    {
....................       ee_send_start(eeLocation, FALSE); // start the right
....................       for (j = 0; j < pageSize ; j++) // write 16 bytes (one page)
....................       {
....................          i2c_write(EEPROM, *(reg + j + (i * pageSize)));
....................          delay_ms(1);
....................       }
....................       i2c_stop();
....................       delay_ms(5);
....................       eeLocation += pageSize;
....................    }   
....................    if (lastPageLength > 0)
....................    {
....................       ee_send_start(eeLocation, FALSE);
....................       for (j = 0; j < lastPageLength; j++)
....................       {
....................          i2c_write(EEPROM, *(reg + j + (i * pageSize)));
....................          delay_ms(1);
....................       }
....................    }   
....................    i2c_stop(EEPROM);
....................    delay_ms(3);
....................    #ifdef writeProtectPin
....................    output_high(writeProtectPin); // for read operations, set WP pin
....................    #endif  
.................... }
.................... #else
.................... {
....................    int i = 0;
....................    for (i = 0; i < length; i++)
003E6:  CLRF   xD6
003E8:  MOVF   xD5,W
003EA:  SUBWF  xD6,W
003EC:  BC    0444
....................    {
....................       write_eeprom(eeLocation+i, *(reg + i));
003EE:  MOVF   xD6,W
003F0:  ADDWF  xD3,W
003F2:  MOVWF  xD7
003F4:  MOVLW  00
003F6:  ADDWFC xD4,W
003F8:  MOVWF  xD8
003FA:  MOVF   xD6,W
003FC:  ADDWF  xD1,W
003FE:  MOVWF  01
00400:  MOVLW  00
00402:  ADDWFC xD2,W
00404:  MOVWF  03
00406:  MOVF   01,W
00408:  MOVWF  FE9
0040A:  MOVFF  03,FEA
0040E:  MOVFF  FEF,5D9
00412:  BSF    F7F.7
00414:  MOVF   FF2,W
00416:  MOVWF  00
00418:  BCF    FF2.7
0041A:  MOVFF  5D8,F7A
0041E:  MOVFF  5D7,F79
00422:  MOVLW  31
00424:  MOVWF  F7B
00426:  MOVFF  5D9,F7C
0042A:  MOVLB  F
0042C:  MOVLW  55
0042E:  MOVWF  F81
00430:  MOVLW  AA
00432:  MOVWF  F81
00434:  BSF    F80.4
00436:  BTFSC  F80.4
00438:  BRA    0436
0043A:  MOVF   00,W
0043C:  IORWF  FF2,F
0043E:  MOVLB  5
00440:  INCF   xD6,F
00442:  BRA    03E8
....................    }
00444:  MOVLB  0
00446:  RETURN 0
.................... }
.................... #endif
.................... 
.................... /*****************************************************************************/
.................... /* READ REGISTER FROM EEPROM                                                 */
.................... /*****************************************************************************/
.................... void ee_load_reg(unsigned int8 *reg, unsigned int16 eeLocation, unsigned int8 length)
.................... #ifdef use_ext_eeprom
*
00366:  MOVLB  5
00368:  CLRF   xD6
.................... {
....................    ee_send_start(eeLocation, TRUE);
....................    for (int i = 0; i < length; i++)
....................    {
....................       unsigned int8 data = i2c_read(EEPROM,1); // acknoledge after each byte
....................       *(reg + i) = data;
....................    }
....................    i2c_read(EEPROM,0); // dummy read without acknowlege
....................    delay_ms(1);
....................    i2c_stop(EEPROM); // end page read, must preceed stop
....................    delay_ms(1);
.................... }
.................... #else
.................... {
....................    int i = 0;
....................    for (i = 0; i < length; i++)
0036A:  CLRF   xD6
0036C:  MOVF   xD5,W
0036E:  SUBWF  xD6,W
00370:  BC    03B4
....................    {
....................       *(reg + i) = read_eeprom(eeLocation+i);
00372:  MOVF   xD6,W
00374:  ADDWF  xD1,W
00376:  MOVWF  01
00378:  MOVLW  00
0037A:  ADDWFC xD2,W
0037C:  MOVWF  03
0037E:  MOVF   01,W
00380:  MOVWF  FE9
00382:  MOVFF  03,FEA
00386:  MOVF   xD6,W
00388:  ADDWF  xD3,W
0038A:  MOVWF  xD9
0038C:  MOVLW  00
0038E:  ADDWFC xD4,W
00390:  MOVWF  xDA
00392:  BSF    F7F.7
00394:  MOVFF  FF2,5DB
00398:  BCF    FF2.7
0039A:  MOVFF  5DA,F7A
0039E:  MOVFF  5D9,F79
003A2:  MOVLW  31
003A4:  MOVWF  F7B
003A6:  BSF    F80.0
003A8:  MOVF   F7C,W
003AA:  BTFSC  xDB.7
003AC:  BSF    FF2.7
003AE:  MOVWF  FEF
003B0:  INCF   xD6,F
003B2:  BRA    036C
....................    }
003B4:  MOVLB  0
003B6:  RETURN 0
.................... }
.................... #endif
.................... 
.................... /*****************************************************************************/
.................... /* SAVE TO ALL PARAMS EEPROM                                                 */
.................... /*****************************************************************************/
.................... void params_save_to_ee()
.................... {
....................    ee_save_reg(&PID, pid_params_ee_addr, pid_params_length);
*
00448:  MOVLB  5
0044A:  CLRF   xD2
0044C:  MOVLW  20
0044E:  MOVWF  xD1
00450:  CLRF   xD4
00452:  CLRF   xD3
00454:  MOVLW  80
00456:  MOVWF  xD5
00458:  MOVLB  0
0045A:  RCALL  03E2
....................    delay_ms(1);
0045C:  MOVLW  01
0045E:  MOVLB  5
00460:  MOVWF  xD7
00462:  MOVLB  0
00464:  RCALL  03B8
....................    ee_save_reg(&chMap, channel_map_ee_addr, channel_map_length);
00466:  MOVLB  5
00468:  CLRF   xD2
0046A:  MOVLW  70
0046C:  MOVWF  xD1
0046E:  CLRF   xD4
00470:  MOVLW  80
00472:  MOVWF  xD3
00474:  MOVLW  02
00476:  MOVWF  xD5
00478:  MOVLB  0
0047A:  RCALL  03E2
....................    delay_ms(1);
0047C:  MOVLW  01
0047E:  MOVLB  5
00480:  MOVWF  xD7
00482:  MOVLB  0
00484:  RCALL  03B8
....................    ee_save_reg(&chMode, channel_mode_ee_addr, channel_mode_length);
00486:  MOVLB  5
00488:  CLRF   xD2
0048A:  MOVLW  71
0048C:  MOVWF  xD1
0048E:  CLRF   xD4
00490:  MOVLW  90
00492:  MOVWF  xD3
00494:  MOVLW  02
00496:  MOVWF  xD5
00498:  MOVLB  0
0049A:  RCALL  03E2
....................    delay_ms(1);
0049C:  MOVLW  01
0049E:  MOVLB  5
004A0:  MOVWF  xD7
004A2:  MOVLB  0
004A4:  RCALL  03B8
....................    ee_save_reg(&adcCal, adc_cal_params_ee_addr, adc_cal_params_length);
004A6:  MOVLB  5
004A8:  CLRF   xD2
004AA:  MOVLW  72
004AC:  MOVWF  xD1
004AE:  CLRF   xD4
004B0:  MOVLW  A0
004B2:  MOVWF  xD3
004B4:  MOVLW  20
004B6:  MOVWF  xD5
004B8:  MOVLB  0
004BA:  RCALL  03E2
....................    delay_ms(1);
004BC:  MOVLW  01
004BE:  MOVLB  5
004C0:  MOVWF  xD7
004C2:  MOVLB  0
004C4:  RCALL  03B8
....................    ee_save_reg(&sensorCal, sensor_cal_params_ee_addr, sensor_cal_params_length);
004C6:  MOVLB  5
004C8:  CLRF   xD2
004CA:  MOVLW  92
004CC:  MOVWF  xD1
004CE:  CLRF   xD4
004D0:  MOVLW  C0
004D2:  MOVWF  xD3
004D4:  MOVLW  30
004D6:  MOVWF  xD5
004D8:  MOVLB  0
004DA:  RCALL  03E2
....................    delay_ms(1);
004DC:  MOVLW  01
004DE:  MOVLB  5
004E0:  MOVWF  xD7
004E2:  MOVLB  0
004E4:  RCALL  03B8
....................    ee_save_reg(&monCal, mon_cal_params_ee_addr, mon_cal_params_length);
004E6:  MOVLB  5
004E8:  CLRF   xD2
004EA:  MOVLW  C2
004EC:  MOVWF  xD1
004EE:  CLRF   xD4
004F0:  MOVLW  F0
004F2:  MOVWF  xD3
004F4:  MOVLW  38
004F6:  MOVWF  xD5
004F8:  MOVLB  0
004FA:  RCALL  03E2
....................    delay_ms(1);
004FC:  MOVLW  01
004FE:  MOVLB  5
00500:  MOVWF  xD7
00502:  MOVLB  0
00504:  RCALL  03B8
....................    ee_save_reg(&paramsValid, params_valid_ee_addr, params_valid_length);
00506:  MOVLB  5
00508:  CLRF   xD2
0050A:  MOVLW  FA
0050C:  MOVWF  xD1
0050E:  MOVLW  01
00510:  MOVWF  xD4
00512:  MOVLW  40
00514:  MOVWF  xD3
00516:  MOVLW  01
00518:  MOVWF  xD5
0051A:  MOVLB  0
0051C:  RCALL  03E2
....................    delay_ms(1);
0051E:  MOVLW  01
00520:  MOVLB  5
00522:  MOVWF  xD7
00524:  MOVLB  0
00526:  RCALL  03B8
00528:  GOTO   05F8 (RETURN)
.................... }
.................... /*****************************************************************************/
.................... /* LOAD ALL PARAMS FROM EEPROM                                               */
.................... /*****************************************************************************/
.................... void params_load_from_ee()
.................... {
....................    ee_load_reg(&PID, pid_params_ee_addr, pid_params_length);
0052C:  MOVLB  5
0052E:  CLRF   xD2
00530:  MOVLW  20
00532:  MOVWF  xD1
00534:  CLRF   xD4
00536:  CLRF   xD3
00538:  MOVLW  80
0053A:  MOVWF  xD5
0053C:  MOVLB  0
0053E:  RCALL  0366
....................    ee_load_reg(&chMap, channel_map_ee_addr, channel_map_length);
00540:  MOVLB  5
00542:  CLRF   xD2
00544:  MOVLW  70
00546:  MOVWF  xD1
00548:  CLRF   xD4
0054A:  MOVLW  80
0054C:  MOVWF  xD3
0054E:  MOVLW  02
00550:  MOVWF  xD5
00552:  MOVLB  0
00554:  RCALL  0366
....................    ee_load_reg(&chMode, channel_mode_ee_addr, channel_mode_length);
00556:  MOVLB  5
00558:  CLRF   xD2
0055A:  MOVLW  71
0055C:  MOVWF  xD1
0055E:  CLRF   xD4
00560:  MOVLW  90
00562:  MOVWF  xD3
00564:  MOVLW  02
00566:  MOVWF  xD5
00568:  MOVLB  0
0056A:  RCALL  0366
....................    ee_load_reg(&adcCal, adc_cal_params_ee_addr, adc_cal_params_length);
0056C:  MOVLB  5
0056E:  CLRF   xD2
00570:  MOVLW  72
00572:  MOVWF  xD1
00574:  CLRF   xD4
00576:  MOVLW  A0
00578:  MOVWF  xD3
0057A:  MOVLW  20
0057C:  MOVWF  xD5
0057E:  MOVLB  0
00580:  RCALL  0366
....................    ee_load_reg(&sensorCal, sensor_cal_params_ee_addr, sensor_cal_params_length);
00582:  MOVLB  5
00584:  CLRF   xD2
00586:  MOVLW  92
00588:  MOVWF  xD1
0058A:  CLRF   xD4
0058C:  MOVLW  C0
0058E:  MOVWF  xD3
00590:  MOVLW  30
00592:  MOVWF  xD5
00594:  MOVLB  0
00596:  RCALL  0366
....................    ee_load_reg(&monCal, mon_cal_params_ee_addr, mon_cal_params_length);
00598:  MOVLB  5
0059A:  CLRF   xD2
0059C:  MOVLW  C2
0059E:  MOVWF  xD1
005A0:  CLRF   xD4
005A2:  MOVLW  F0
005A4:  MOVWF  xD3
005A6:  MOVLW  38
005A8:  MOVWF  xD5
005AA:  MOVLB  0
005AC:  RCALL  0366
....................    ee_load_reg(&paramsValid, params_valid_ee_addr, params_valid_length);
005AE:  MOVLB  5
005B0:  CLRF   xD2
005B2:  MOVLW  FA
005B4:  MOVWF  xD1
005B6:  MOVLW  01
005B8:  MOVWF  xD4
005BA:  MOVLW  40
005BC:  MOVWF  xD3
005BE:  MOVLW  01
005C0:  MOVWF  xD5
005C2:  MOVLB  0
005C4:  RCALL  0366
005C6:  GOTO   05FC (RETURN)
.................... }
.................... 
.................... /*****************************************************************************/
.................... /* INITIALIZE PARAMS -- Include in main... Run on boot                       */
.................... /*****************************************************************************/
.................... void params_init()
.................... {
....................    ee_load_reg(&paramsValid, params_valid_ee_addr, params_valid_length);
005CA:  MOVLB  5
005CC:  CLRF   xD2
005CE:  MOVLW  FA
005D0:  MOVWF  xD1
005D2:  MOVLW  01
005D4:  MOVWF  xD4
005D6:  MOVLW  40
005D8:  MOVWF  xD3
005DA:  MOVLW  01
005DC:  MOVWF  xD5
005DE:  MOVLB  0
005E0:  RCALL  0366
....................    delay_ms(1);
005E2:  MOVLW  01
005E4:  MOVLB  5
005E6:  MOVWF  xD7
005E8:  MOVLB  0
005EA:  RCALL  03B8
....................    if (paramsValid != isValid)
005EC:  MOVF   xFA,W
005EE:  SUBLW  AA
005F0:  BZ    05FA
....................    {
....................       paramsValid = isValid;
005F2:  MOVLW  AA
005F4:  MOVWF  xFA
....................       params_save_to_ee(); // saves the base parameters on first boot
005F6:  BRA    0448
....................    }
005F8:  BRA    05FC
....................    else
....................    {
....................       params_load_from_ee();
005FA:  BRA    052C
....................    }
005FC:  GOTO   45A0 (RETURN)
.................... }
.................... 
.................... /*****************************************************************************/
.................... /* INVALIDATE PARAMS -- Restarting will load defauts                         */
.................... /*****************************************************************************/
.................... void params_invalidate()
.................... {
....................    paramsValid = invalidate;
....................    ee_save_reg(&paramsValid, params_valid_ee_addr, params_valid_length);
.................... }
.................... 
.................... #endif
.................... 
.................... #include <monitor.h>
.................... #ifndef monitor
.................... #define monitor
.................... #include <io.h>
.................... #ifndef IO
.................... #define IO
.................... 
.................... #use FIXED_IO( A_outputs=PIN_A5,PIN_A4 )
.................... #use FIXED_IO( B_outputs=PIN_B7,PIN_B6,PIN_B5,PIN_B4,PIN_B3,PIN_B1,PIN_B0 )
.................... #use FIXED_IO( C_outputs=PIN_C6,PIN_C5,PIN_C3,PIN_C2 )
.................... #use FIXED_IO( D_outputs=PIN_D7,PIN_D6,PIN_D5 )
.................... #use FIXED_IO( E_outputs=PIN_E2,PIN_E1,PIN_E0 )
.................... 
.................... #define A0           PIN_A0
.................... #define A1           PIN_A1
.................... #define A2           PIN_A2
.................... #define A3           PIN_A3
.................... #define _CS_ACC1     PIN_A4
.................... #define _CS_ACC0     PIN_A5
.................... #define MON_N15V     PIN_A6
.................... 
.................... #define _CS_YCOS     PIN_B0
.................... #define SCLK_B       PIN_B1
.................... #define MISO_B       PIN_B2
.................... #define MOSI_B       PIN_B3
.................... #define INV_HVX      PIN_B4
.................... #define INV_HVY      PIN_B5
.................... 
.................... #define MON_200V     PIN_C0
.................... #define MON_3V6X     PIN_C1
.................... #define MOSI_A       PIN_C2
.................... #define SCLK_A       PIN_C3
.................... #define MISO_A       PIN_C4
.................... #define TX_ENABLE    PIN_C5
.................... #define TX_PIN       PIN_C6
.................... #define RX_PIN       PIN_C7
.................... 
.................... #define MON_5V6      PIN_D0
.................... #define MON_5VA      PIN_D1
.................... #define MON_3V3D     PIN_D2
.................... #define MON_3V3A     PIN_D3
.................... #define RS485_FLT    PIN_D4
.................... #define _CS_XSIN     PIN_D5
.................... #define _CS_XCOS     PIN_D6
.................... #define _CS_YSIN     PIN_D7
.................... 
.................... #define EN_EXC       PIN_E0
.................... #define _SYNC_Y      PIN_E1
.................... #define _SYNC_X      PIN_E2
.................... 
.................... #pin_select U1TX = PIN_C6
.................... #pin_select U1RX = PIN_C7
.................... 
.................... // initialization states
.................... #define portA_reset 0x00
.................... #define portB_reset 0x00
.................... #define portC_reset 0x00
.................... #define portD_reset 0x00
.................... #define portE_reset 0x00
.................... 
.................... #define portA_pullups 0xFF
.................... #define portB_pullups 0x00
.................... #define portC_pullups 0x00
.................... #define portD_pullups 0xFF
.................... #define portE_pullups 0x00
.................... 
.................... /*****************************************************************************/
.................... /* INITIALIZE IO                                                             */
.................... /*****************************************************************************/
.................... void IO_init()
.................... {
....................    output_a(portA_reset);
....................    output_b(portB_reset);
....................    output_c(portC_reset);
....................    output_d(portD_reset);
....................    output_e(portE_reset);
....................    
....................    port_a_pullups(portA_pullups);
....................    port_b_pullups(portB_pullups);
....................    port_c_pullups(portC_pullups);
....................    port_d_pullups(portD_pullups);
....................    port_e_pullups(portE_pullups);
....................    
....................    set_analog_pins(MON_N15V, MON_200V, MON_5V6, MON_5VA, MON_3V6X, MON_3V3A, MON_3V3D);
.................... }
.................... 
.................... #endif
.................... 
.................... #include <parameters.h>
.................... #ifndef parameters
.................... #define parameters
.................... 
.................... //#define use_ext_eeprom
.................... 
.................... /*****************************************************************************/
.................... /*****************************************************************************/
.................... /* PARAMETERS                                                                */
.................... /* Global parameters used by all routines                                    */
.................... /* These defaults are defined below. On first boot, they will be stored in   */
.................... /* EEProm. On subsequent boots, they will be reloaded from EEProm. Any       */
.................... /* configuation changes will be changed in EEprom, hence will be restored on */
.................... /* subsequent boot. All params start at page boundaries!!                    */
.................... /*****************************************************************************/
.................... /*****************************************************************************/
.................... #include <stddef.h>
.................... #include <stdlib.h>
.................... 
.................... typedef enum channelMap {chX, chY}; // Piezo channels
.................... typedef enum channelMode {MANUAL, MAGSNS}; // Voltage or Magnetic Sensor Control
.................... 
.................... /*****************************************************************************/
.................... /* CAT24C04 EEProm --- page size = 16 bytes, Write when LSB=0 Read when LSB=1*/
.................... /*****************************************************************************/
.................... #ifdef use_ext_eeprom
.................... #define EE_Slave_Addr 0xA0
.................... #define writeProtectPin EE_WP
.................... #define pageSize 16
.................... // EEProm is on 12C bus 1
.................... #use i2c(master, fast, sda=PIN_C4, scl=PIN_C3, FORCE_HW, STREAM=EEPROM)
.................... #endif
.................... 
.................... /*****************************************************************************/
.................... /*****************************************************************************/
.................... /* FUNCTIONS PROTOTYPES START HERE                                           */
.................... /*****************************************************************************/
.................... /*****************************************************************************/
.................... #ifdef use_ext_eeprom
.................... void ee_send_start(unsigned int16 address, BOOLEAN read);
.................... #endif
.................... void ee_save_reg(unsigned int8 *reg, unsigned int16 eeLocation, unsigned int8 length);
.................... void ee_load_reg(unsigned int8 *reg, unsigned int16 eeLocation, unsigned int8 length);
.................... void params_save_to_ee(void);
.................... void params_load_from_ee(void);
.................... void params_init(void);
.................... void params_invalidate(void);
.................... 
.................... /*****************************************************************************/
.................... /*****************************************************************************/
.................... /* PARAMETERS START HERE. All Params should have an EEPROM address that is   */
.................... /* at the start of an EERPOM page.                                           */ 
.................... /*****************************************************************************/
.................... /*****************************************************************************/
.................... 
.................... /*****************************************************************************/
.................... /* PID Parameters                                                            */
.................... /*****************************************************************************/
.................... #define pid_params_ee_addr 0
.................... #define pid_params_length 128  // length in bytes
.................... struct pidParams
.................... {
....................     float kP;      // proportional gain
....................     float kI;      // integral gain
....................     float kD;      // derivative gain
....................     float SP;      // set point-- desired output
....................     float PV;      // process variable-- measured output
....................     float PVold;   // oldPV value  
....................     float CV;      // control variable-- output -- 0 to 100%
....................     float I;       // integral value
....................     float maxSP;   // Max setpoint in microns
....................     float minSP;   // Min setpoint in microns
.................... }PID[2] = {
....................    //  P     I     D
....................     {0.01,   0.3,  0.1, 0,0,0,0,0,0,0}, 
....................     {0.01,   0.3,  0.1, 0,0,0,0,0,0,0}
....................     };
.................... 
.................... /*****************************************************************************/
.................... /* Output Channel Map                                                        */
.................... /*****************************************************************************/
.................... #define channel_map_ee_addr 128
.................... #define channel_map_length 2  // length in bytes
.................... channelMap chMap[2] = {chX, chY};
.................... 
.................... // @FLAG
.................... // #define op_upper_bound 63  // CRYO
.................... // #define op_lower_bound -63 // CRYO
.................... 
.................... #define op_upper_bound 63  // AMBIENT 
.................... #define op_lower_bound -12 // AMBIENT
.................... 
.................... //!#define op_upper_bound 100  // FULL 
.................... //!#define op_lower_bound -100 // FULL
.................... 
.................... 
.................... /*****************************************************************************/
.................... /* Input Channel Mode                                                        */
.................... /*****************************************************************************/
.................... #define channel_mode_ee_addr 144
.................... #define channel_mode_length 2  // length in bytes
.................... channelMode chMode[2] = {MANUAL, MANUAL};
.................... 
.................... /*****************************************************************************/
.................... /* ADC Calibration Constants                                                 */
.................... /*****************************************************************************/
.................... #define adc_cal_params_ee_addr 160
.................... #define adc_cal_params_length 32  // length in bytes
.................... struct adcCalParms
.................... {
....................    float sinOS;
....................    float cosOS;
....................    float sinGain;
....................    float cosGain;
.................... } adcCal[2] = {
....................                 {0,0,1,1},
....................                 {0,0,1,1}
....................               };
.................... 
.................... /*****************************************************************************/
.................... /* Sensor Calibration Constants                                              */
.................... /*****************************************************************************/
.................... #define sensor_cal_params_ee_addr 192
.................... #define sensor_cal_params_length 48  // length in bytes
.................... struct sensorCalParams
.................... {
....................    float c0;
....................    float c1;
....................    float c2;
....................    float c3;
....................    float c4;
....................    float c5;
.................... } sensorCal[2] = {
....................                     {0,-0.97687,0,0,0,0},  // @FLAG: Switched Channels
....................                     {0,-0.99084,0,0,0,0}
....................                  };
.................... 
.................... // fifth order polynomial constants
.................... 
.................... /*****************************************************************************/
.................... /* Monitor Calibration Constants                                             */
.................... /*****************************************************************************/
.................... #define mon_cal_params_ee_addr 240
.................... #define mon_cal_params_length 56  // length in bytes
.................... struct monCalParams
.................... {
....................    float vN15[2];  // offset and gain
....................    float v200[2];
....................    float v5V6[2];
....................    float v5VA[2];
....................    float v3V6X[2];
....................    float v3V3A[2];
....................    float v3V3D[2];
....................    
.................... }monCal = {
....................    {0, -0.02245509}, 
....................    {0,   0.2127659}, 
....................    {0, 0.008432515}, 
....................    {0, 0.008173486}, 
....................    {0, 0.009655914}, 
....................    {0, 0.007094828}, 
....................    {0, 0.007081720}
.................... };
.................... 
.................... /*****************************************************************************/
.................... /* PARAMS Valid                                                              */
.................... /*****************************************************************************/
.................... #define invalidate 0xFF
.................... #define isValid 0xAA
.................... #define params_valid_ee_addr 320
.................... #define params_valid_length 1  // length in bytes
.................... char paramsValid = isValid;
.................... // if data returns isValid from EEPROM then EEPROM has valid data
.................... 
.................... /*****************************************************************************/
.................... /*****************************************************************************/
.................... /* VOLATILE PARAMETERS                                                       */
.................... /*****************************************************************************/
.................... /*****************************************************************************/
.................... struct mv
.................... {
....................    float vN15; // internal voltages
....................    float v200;
....................    float v5V6;
....................    float v5VA;
....................    float v3V6X;
....................    float v3V3A;
....................    float v3V3D;
.................... }monitorVals = {0,0,0,0,0,0,0};
.................... 
.................... struct adcV
.................... {
....................    float sinRaw;           // adc raw count data
....................    float cosRaw;           // adc raw count data
....................    float sinCounts;        // calibrated counts
....................    float cosCounts;        // calibrated counts
....................    float sinLast;          // previous sin data
....................    float cosLast;          // previous cos data
....................    float p0;               // mid-pole position in microns
....................    signed int8  npoles;    // number of poles passed
....................    float pReal;            // real position in microns
....................    float pHome;            // Home position in microns
....................    BOOLEAN homeFlag;       // Flag to trigger the homing routine
.................... }adcVals[2] = 
.................... {
....................    {0,0,0,0,0,0,0,0,0,0,FALSE},
....................    {0,0,0,0,0,0,0,0,0,0,FALSE}
.................... };
.................... 
.................... BOOLEAN adcFilter = FALSE;
.................... 
.................... struct dacV
.................... {
....................     BOOLEAN invV;
....................     unsigned int16 ipVal;
....................     float opPcnt;
....................    
.................... }dacVals[2] = 
.................... {
....................     {FALSE,0,0},
....................     {FALSE,0,0}
.................... };
.................... 
.................... // used with timeouts
.................... unsigned int32 timeoutReg0 = 0; //All timers are defined in milliseconds, 
.................... unsigned int32 timeoutReg1 = 0; //with a resolution of 10ms
.................... unsigned int32 timeoutReg2 = 0;
.................... unsigned int16 intTimeoutReg = 0; // interrupting use for more precise timing
.................... /*****************************************************************************/
.................... /*****************************************************************************/
.................... /* FUNCTIONS START HERE                                                      */
.................... /*****************************************************************************/
.................... /*****************************************************************************/
.................... 
.................... /*****************************************************************************/
.................... /* ee_send_start --- sends the start messsage to the eeprom and set the addr */
.................... /*****************************************************************************/
.................... #ifdef use_ext_eeprom
.................... void ee_send_start(unsigned int16 address, BOOLEAN read = TRUE)
.................... {
....................    unsigned int8 romAddr = (unsigned int8)(address & 0x00FF);
....................    unsigned int8 slaveAddr = EE_Slave_Addr;
....................    #ifdef writeProtectPin
....................    output_low(writeProtectPin); // for write operations, clr WP pin
....................    #endif
....................    if (address > 0xFF) // if address > 8 bits
....................    { //add upper address bits (LSB of slave reserved are R/!W) 
....................       slaveAddr |= (unsigned int8)((address >> 7) & 0x000E) ;   
....................    }
....................    i2c_start(EEPROM);   // send start pulse on bus
....................    delay_ms(1);
....................    i2c_write(EEPROM, slaveAddr); // send slave address with R/!W clr (WRITE)
....................    i2c_write(EEPROM, romAddr); // rom address
....................    if (read) 
....................    {
....................       slaveAddr |= 0x01; // set the read bit
....................       delay_ms(1);
....................       i2c_start(EEPROM);
....................       delay_ms(1);
....................       i2c_write (EEPROM, slaveAddr); // send slave with R!W set (READ)
....................       #ifdef writeProtectPin
....................       output_high(writeProtectPin); // for read operations, set WP pin
....................       #endif
....................    }
.................... }
.................... #endif
.................... /*****************************************************************************/
.................... /* SAVE REGISTER TO EEPROM                                                   */
.................... /* note all registers are saved at a page boundary for simplicity            */
.................... /*****************************************************************************/
.................... void ee_save_reg(unsigned int8 *reg, unsigned int16 eeLocation, unsigned int8 length)
.................... #ifdef use_ext_eeprom
.................... {
....................    int pageCnt = length/pageSize;
....................    int lastPageLength = length%pageSize;
....................    
....................    int i = 0; // number of pages to write
....................    int j = 0; // number of characters to write on last page
....................    
....................    for ( i = 0; i < pageCnt ; i++)  // pages to writes
....................    {
....................       ee_send_start(eeLocation, FALSE); // start the right
....................       for (j = 0; j < pageSize ; j++) // write 16 bytes (one page)
....................       {
....................          i2c_write(EEPROM, *(reg + j + (i * pageSize)));
....................          delay_ms(1);
....................       }
....................       i2c_stop();
....................       delay_ms(5);
....................       eeLocation += pageSize;
....................    }   
....................    if (lastPageLength > 0)
....................    {
....................       ee_send_start(eeLocation, FALSE);
....................       for (j = 0; j < lastPageLength; j++)
....................       {
....................          i2c_write(EEPROM, *(reg + j + (i * pageSize)));
....................          delay_ms(1);
....................       }
....................    }   
....................    i2c_stop(EEPROM);
....................    delay_ms(3);
....................    #ifdef writeProtectPin
....................    output_high(writeProtectPin); // for read operations, set WP pin
....................    #endif  
.................... }
.................... #else
.................... {
....................    int i = 0;
....................    for (i = 0; i < length; i++)
....................    {
....................       write_eeprom(eeLocation+i, *(reg + i));
....................    }
.................... }
.................... #endif
.................... 
.................... /*****************************************************************************/
.................... /* READ REGISTER FROM EEPROM                                                 */
.................... /*****************************************************************************/
.................... void ee_load_reg(unsigned int8 *reg, unsigned int16 eeLocation, unsigned int8 length)
.................... #ifdef use_ext_eeprom
.................... {
....................    ee_send_start(eeLocation, TRUE);
....................    for (int i = 0; i < length; i++)
....................    {
....................       unsigned int8 data = i2c_read(EEPROM,1); // acknoledge after each byte
....................       *(reg + i) = data;
....................    }
....................    i2c_read(EEPROM,0); // dummy read without acknowlege
....................    delay_ms(1);
....................    i2c_stop(EEPROM); // end page read, must preceed stop
....................    delay_ms(1);
.................... }
.................... #else
.................... {
....................    int i = 0;
....................    for (i = 0; i < length; i++)
....................    {
....................       *(reg + i) = read_eeprom(eeLocation+i);
....................    }
.................... }
.................... #endif
.................... 
.................... /*****************************************************************************/
.................... /* SAVE TO ALL PARAMS EEPROM                                                 */
.................... /*****************************************************************************/
.................... void params_save_to_ee()
.................... {
....................    ee_save_reg(&PID, pid_params_ee_addr, pid_params_length);
....................    delay_ms(1);
....................    ee_save_reg(&chMap, channel_map_ee_addr, channel_map_length);
....................    delay_ms(1);
....................    ee_save_reg(&chMode, channel_mode_ee_addr, channel_mode_length);
....................    delay_ms(1);
....................    ee_save_reg(&adcCal, adc_cal_params_ee_addr, adc_cal_params_length);
....................    delay_ms(1);
....................    ee_save_reg(&sensorCal, sensor_cal_params_ee_addr, sensor_cal_params_length);
....................    delay_ms(1);
....................    ee_save_reg(&monCal, mon_cal_params_ee_addr, mon_cal_params_length);
....................    delay_ms(1);
....................    ee_save_reg(&paramsValid, params_valid_ee_addr, params_valid_length);
....................    delay_ms(1);
.................... }
.................... /*****************************************************************************/
.................... /* LOAD ALL PARAMS FROM EEPROM                                               */
.................... /*****************************************************************************/
.................... void params_load_from_ee()
.................... {
....................    ee_load_reg(&PID, pid_params_ee_addr, pid_params_length);
....................    ee_load_reg(&chMap, channel_map_ee_addr, channel_map_length);
....................    ee_load_reg(&chMode, channel_mode_ee_addr, channel_mode_length);
....................    ee_load_reg(&adcCal, adc_cal_params_ee_addr, adc_cal_params_length);
....................    ee_load_reg(&sensorCal, sensor_cal_params_ee_addr, sensor_cal_params_length);
....................    ee_load_reg(&monCal, mon_cal_params_ee_addr, mon_cal_params_length);
....................    ee_load_reg(&paramsValid, params_valid_ee_addr, params_valid_length);
.................... }
.................... 
.................... /*****************************************************************************/
.................... /* INITIALIZE PARAMS -- Include in main... Run on boot                       */
.................... /*****************************************************************************/
.................... void params_init()
.................... {
....................    ee_load_reg(&paramsValid, params_valid_ee_addr, params_valid_length);
....................    delay_ms(1);
....................    if (paramsValid != isValid)
....................    {
....................       paramsValid = isValid;
....................       params_save_to_ee(); // saves the base parameters on first boot
....................    }
....................    else
....................    {
....................       params_load_from_ee();
....................    }
.................... }
.................... 
.................... /*****************************************************************************/
.................... /* INVALIDATE PARAMS -- Restarting will load defauts                         */
.................... /*****************************************************************************/
.................... void params_invalidate()
.................... {
....................    paramsValid = invalidate;
....................    ee_save_reg(&paramsValid, params_valid_ee_addr, params_valid_length);
.................... }
.................... 
.................... #endif
.................... 
.................... #include <ADS1220.h>
.................... #ifndef ADS1220
.................... #define ADS1220
.................... 
.................... /*****************************************************************************/
.................... /* SET UP PORTS FOR USE WITH DRIVER                                          */
.................... /*****************************************************************************/
.................... #define _CS0  PIN_D5 // chip select pins 
.................... #define _CS1  PIN_D6
.................... #define _CS2  PIN_D7
.................... #define _CS3  PIN_B0
.................... 
.................... #pin_select SCK2=PIN_B1
.................... #pin_select SDI2=PIN_B2
.................... #pin_select SDO2=PIN_B3
.................... #use spi(MASTER, SPI2, BAUD=4096000, MODE=1, STREAM=SPI_mon)
.................... //!setup_spi2(SPI_MASTER | SPI_SCK_IDLE_LOW | SPI_XMIT_H_TO_L | SPI_CLK_DIV_64);
.................... 
.................... /*****************************************************************************/
.................... 
.................... /*****************************************************************************/
.................... /* REGISTER DEFINITIONS                                                      */
.................... /*****************************************************************************/
.................... typedef enum {reg0 = 0x00,reg1 = 0x04 ,reg2 = 0x08, reg3 = 0x0C}adsReg;
.................... 
.................... //REGISTER 0 OPTIONS
.................... 
.................... #define IPp0n1 0x00
.................... #define IPp0n2 0x10
.................... #define IPp0n3 0x20
.................... #define IPp1n2 0x30
.................... #define IPp1n3 0x40
.................... #define IPp2n3 0x50
.................... #define IPp1n0 0x60
.................... #define IPp3n2 0x70
.................... #define IPp0nVss 0x80
.................... #define IPp1nVss 0x90
.................... #define IPp2nVss 0xA0
.................... #define IPp3nVss 0xB0
.................... #define IPVrpVrn 0xC0
.................... #define IPVddVss 0xD0
.................... #define IPhalfRail 0xE0
.................... 
.................... #define g1 0x00
.................... #define g2 0x02
.................... #define g4 0x04
.................... #define g8 0x06
.................... #define g16 0x08
.................... #define g32 0x0A
.................... #define g64 0x0C
.................... #define g128 0x0E
.................... 
.................... #define PGAenabled 0x00
.................... #define PGAbypass 0x01
.................... 
.................... //REGISTER 1 OPTIONS
.................... 
.................... #define DRn20 0x00
.................... #define DRn45 0x20
.................... #define DRn90 0x40
.................... #define DRn175 0x60
.................... #define DRn330 0x80
.................... #define DRn600 0xA0
.................... #define DRn1000 0xC0
.................... 
.................... #define MDnormal 0x00
.................... #define MDduty 0x80
.................... #define MDturbo 0x10
.................... 
.................... #define CMsingle 0x00
.................... #define CMcont 0x40
.................... 
.................... #define TSdisable 0x00
.................... #define TSenable 0x20
.................... 
.................... #define BCSoff 0x00
.................... #define BCSon 0x01
.................... 
.................... //REGISTER 2 OPTIONS
.................... 
.................... #define REFinternal 0x00
.................... #define REFp0n0 0x40
.................... #define REFp1n1 0x80
.................... #define REFVddVss 0xC0
.................... 
.................... #define FIRoff 0x00
.................... #define FIR5060 0x10
.................... #define FIR50 0x20
.................... #define FIR60 0x30
.................... 
.................... #define PSWopen 0x00
.................... #define PSWstart 0x08
.................... 
.................... #define Ioff 0x00
.................... #define Iu10 0x01
.................... #define Iu50 0x02
.................... #define Iu100 0x03
.................... #define Iu250 0x04
.................... #define Iu500 0x05
.................... #define Iu1000 0x06
.................... #define Iu1500 0x07  
.................... 
.................... //REGISTER 3 OPTIONS
.................... 
.................... #define I1disabled 0x00
.................... #define I1a0p1 0x20
.................... #define I1a1 0x40
.................... #define I1a2 0x60
.................... #define I1a3n1 0x80
.................... #define I1p0 0xA0
.................... #define I1n0 0xC0
.................... 
.................... #define I2disabled 0x00
.................... #define I2a0p1 0x04
.................... #define I2a1 0x08
.................... #define I2a2 0x0A
.................... #define I2a3n1 0x10
.................... #define I2p0 0x14
.................... #define I2n0 0x18
.................... 
.................... #define drdyPin 0x00
.................... #define doutPin 0x20
.................... 
.................... // REGISTER CONGIGURATIONS FOR THIS APP
.................... #define reg0config IPp1n2|g1|PGAenabled // 0x30//
.................... #define reg1config DRn20|MDturbo|CMsingle|TSDisable|BCSoff //0x10
.................... #define reg2config REFinternal|FIRoff|PSWopen|Ioff //0x80
.................... #define reg3config I1disabled|I2disabled|drdyPin //0x00
.................... 
.................... //COMMANDS
.................... #define ADSreset 0x06
.................... #define ADSstart 0x08
.................... #define ADSpowerDn 0x02
.................... #define ADSreadData 0x10
.................... #define ADSreadReg 0x20
.................... #define ADSwriteReg 0x40
.................... 
.................... /*****************************************************************************/
.................... /*****************************************************************************/
.................... /* FUNCTIONS START HERE                                                      */
.................... /*****************************************************************************/
.................... /*****************************************************************************/
.................... 
.................... /*****************************************************************************/
.................... /* DESELECT ALL ADCs                                                         */
.................... /*****************************************************************************/
.................... void ads_deselect_all()
.................... {   
....................    output_high(_CS0); // deselect all chip select pins
*
0012A:  MOVLW  1F
0012C:  MOVWF  F8A
0012E:  BSF    F85.5
....................    output_high(_CS1);
00130:  MOVWF  F8A
00132:  BSF    F85.6
....................    output_high(_CS2);
00134:  MOVWF  F8A
00136:  BSF    F85.7
....................    output_high(_CS3); 
00138:  MOVLW  04
0013A:  MOVWF  F88
0013C:  BSF    F83.0
....................    delay_us(10);
0013E:  MOVLW  35
00140:  MOVWF  00
00142:  DECFSZ 00,F
00144:  BRA    0142
00146:  RETURN 0
.................... }
.................... 
.................... /*****************************************************************************/
.................... /* SELECT DESIRED ADC                                                        */
.................... /*****************************************************************************/
.................... void ads_select_ch(int8 ch)
.................... {
....................    ads_deselect_all();
*
00600:  RCALL  012A
....................    switch(ch)
00602:  MOVLB  5
00604:  MOVF   xE2,W
00606:  ADDLW  FC
00608:  BC    063C
0060A:  ADDLW  04
0060C:  MOVLB  0
0060E:  GOTO   0648
....................    {
....................       case 0:
....................          output_low(_CS0);
00612:  MOVLW  1F
00614:  MOVWF  F8A
00616:  BCF    F85.5
....................       break; 
00618:  MOVLB  5
0061A:  BRA    063C
....................       case 1:
....................          output_low(_CS1);
0061C:  MOVLW  1F
0061E:  MOVWF  F8A
00620:  BCF    F85.6
....................       break;   
00622:  MOVLB  5
00624:  BRA    063C
....................       case 2:
....................          output_low(_CS2);
00626:  MOVLW  1F
00628:  MOVWF  F8A
0062A:  BCF    F85.7
....................       break;
0062C:  MOVLB  5
0062E:  BRA    063C
....................       case 3:
....................          output_low(_CS3);
00630:  MOVLW  04
00632:  MOVWF  F88
00634:  BCF    F83.0
....................       break;              
00636:  MOVLB  5
00638:  BRA    063C
0063A:  MOVLB  5
....................    }
....................    delay_us(10);
0063C:  MOVLW  35
0063E:  MOVWF  00
00640:  DECFSZ 00,F
00642:  BRA    0640
00644:  MOVLB  0
00646:  RETURN 0
.................... }
.................... 
.................... /*****************************************************************************/
.................... /* SELECT ADC BLOCK (2 ADCs/BLOCK)                                           */
.................... /*****************************************************************************/
.................... void ads_select_block(int8 block)
.................... {
....................    ads_deselect_all();
*
00148:  RCALL  012A
....................    switch(block)
0014A:  MOVLB  6
0014C:  MOVF   x33,W
0014E:  XORLW  00
00150:  MOVLB  0
00152:  BZ    015A
00154:  XORLW  01
00156:  BZ    0166
00158:  BRA    0172
....................    {
....................       case 0:
....................          output_low(_CS0);
0015A:  MOVLW  1F
0015C:  MOVWF  F8A
0015E:  BCF    F85.5
....................          output_low(_CS1);
00160:  MOVWF  F8A
00162:  BCF    F85.6
....................       break; 
00164:  BRA    0172
....................       case 1:         
....................          output_low(_CS2);
00166:  MOVLW  1F
00168:  MOVWF  F8A
0016A:  BCF    F85.7
....................          output_low(_CS3);
0016C:  MOVLW  04
0016E:  MOVWF  F88
00170:  BCF    F83.0
....................       break;         
....................    }
....................    delay_us(10);
00172:  MOVLW  35
00174:  MOVWF  00
00176:  DECFSZ 00,F
00178:  BRA    0176
0017A:  GOTO   0184 (RETURN)
.................... }
.................... 
.................... /*****************************************************************************/
.................... /* SELECT ALL ADCs                                                           */
.................... /*****************************************************************************/
.................... void ads_select_all()
.................... {
....................    output_low(_CS0);
*
00734:  MOVLW  1F
00736:  MOVWF  F8A
00738:  BCF    F85.5
....................    output_low(_CS1);
0073A:  MOVWF  F8A
0073C:  BCF    F85.6
....................    output_low(_CS2);
0073E:  MOVWF  F8A
00740:  BCF    F85.7
....................    output_low(_CS3);
00742:  MOVLW  04
00744:  MOVWF  F88
00746:  BCF    F83.0
....................    delay_us(10);
00748:  MOVLW  35
0074A:  MOVWF  00
0074C:  DECFSZ 00,F
0074E:  BRA    074C
00750:  GOTO   0756 (RETURN)
.................... }
.................... 
.................... /*****************************************************************************/
.................... /* WRITE THE COMMAND BYTE TO AN ADC                                          */
.................... /*****************************************************************************/
.................... void ads_write_command(int8 ch, unsigned int8 command)
.................... {
....................    ads_select_ch(ch);
*
0066A:  MOVFF  5E0,5E2
0066E:  RCALL  0600
....................    spi_write2(command);
00670:  MOVLB  E
00672:  MOVF   x8D,W
00674:  MOVFF  5E1,E8D
00678:  RRCF   x90,W
0067A:  BNC   0678
0067C:  MOVLB  0
0067E:  RETURN 0
.................... }
.................... 
.................... /*****************************************************************************/
.................... /* WRITE THE COMMAND BYTE TO A BLOCK OF ADCs                                 */
.................... /*****************************************************************************/
.................... void ads_write_command_block(int8 block, unsigned int8 command)
.................... {
....................    ads_select_block(block);
*
0017E:  MOVFF  631,633
00182:  BRA    0148
....................    spi_write2(command);
00184:  MOVLB  E
00186:  MOVF   x8D,W
00188:  MOVFF  632,E8D
0018C:  RRCF   x90,W
0018E:  BNC   018C
00190:  MOVLB  0
00192:  GOTO   01A4 (RETURN)
.................... }
.................... 
.................... /*****************************************************************************/
.................... /* WRITE THE COMMAND BYTE TO ALL ADCs                                        */
.................... /*****************************************************************************/
.................... void ads_write_command_all(unsigned int8 command)
.................... {
....................    ads_select_all();
*
00754:  BRA    0734
....................    spi_write2(command);
00756:  MOVLB  E
00758:  MOVF   x8D,W
0075A:  MOVFF  5D7,E8D
0075E:  RRCF   x90,W
00760:  BNC   075E
00762:  MOVLB  0
00764:  GOTO   0772 (RETURN)
.................... }
.................... 
.................... /*****************************************************************************/
.................... /* PREPARE TO READ FROM AN ADC                                               */
.................... /*****************************************************************************/
.................... void ads_read_command(int8 ch, unsigned int8 command)
.................... {
....................    ads_select_ch(ch);
*
00780:  MOVFF  5DF,5E2
00784:  RCALL  0600
....................    spi_read2(command);
00786:  MOVLB  E
00788:  MOVF   x8D,W
0078A:  MOVFF  5E0,E8D
0078E:  RRCF   x90,W
00790:  BNC   078E
00792:  MOVLB  0
00794:  GOTO   07A6 (RETURN)
.................... }
.................... 
.................... /*****************************************************************************/
.................... /* WRITE TO THE CONFIGURATION REGISTERS                                      */
.................... /*****************************************************************************/
.................... void ads_write_reg(int8 ch, adsReg regID, int8 data)
*
006A4:  MOVLB  5
006A6:  MOVF   xDD,W
006A8:  IORLW  40
006AA:  MOVWF  xDF
.................... {
....................    unsigned int8 command = ADSwriteReg | regID | 0; // 0 is numbytes to write-1
....................    ads_write_command(ch, command);
006AC:  MOVFF  5DC,5E0
006B0:  MOVFF  5DF,5E1
006B4:  MOVLB  0
006B6:  RCALL  066A
....................    spi_write2(data);
006B8:  MOVLB  E
006BA:  MOVF   x8D,W
006BC:  MOVFF  5DE,E8D
006C0:  RRCF   x90,W
006C2:  BNC   06C0
....................    ads_deselect_all();
006C4:  MOVLB  0
006C6:  RCALL  012A
006C8:  RETURN 0
.................... }
.................... 
.................... /*****************************************************************************/
.................... /* READ FROM THE CONFIGURATION REGISTERS                                     */
.................... /*****************************************************************************/
.................... unsigned int8 ads_read_reg(int8 ch, adsReg regID)
.................... {
....................    unsigned int8 command = ADSreadReg | regID | 0;
....................    ads_read_command(ch, command);
....................    unsigned int8 data = spi_read2(0);
....................    ads_deselect_all();
....................    return data;
.................... }
.................... 
.................... 
.................... /*****************************************************************************/
.................... /* START BLOCK CONVERSION                                                    */
.................... /*****************************************************************************/
.................... void ads_start_conv_block(int8 block)
.................... {
....................    ads_write_command_block(block, ADSstart);
*
00196:  MOVFF  630,631
0019A:  MOVLW  08
0019C:  MOVLB  6
0019E:  MOVWF  x32
001A0:  MOVLB  0
001A2:  BRA    017E
....................    delay_us(10);
001A4:  MOVLW  35
001A6:  MOVWF  00
001A8:  DECFSZ 00,F
001AA:  BRA    01A8
....................    ads_deselect_all();
001AC:  RCALL  012A
001AE:  GOTO   01F4 (RETURN)
.................... }
.................... 
.................... /*****************************************************************************/
.................... /* START ALL CONVERSION                                                      */
.................... /*****************************************************************************/
.................... void ads_start_conv_all()
.................... {
....................    ads_write_command_all(ADSstart);
*
00768:  MOVLW  08
0076A:  MOVLB  5
0076C:  MOVWF  xD7
0076E:  MOVLB  0
00770:  BRA    0754
....................    delay_us(10);
00772:  MOVLW  35
00774:  MOVWF  00
00776:  DECFSZ 00,F
00778:  BRA    0776
....................    ads_deselect_all();
0077A:  RCALL  012A
0077C:  GOTO   0902 (RETURN)
.................... }
.................... 
.................... /*****************************************************************************/
.................... /* READ THE MOST RECENT CONVERSION                                           */
.................... /*****************************************************************************/
.................... signed int32 ads_read_data(int8 ch)
.................... {
....................    union Data
....................    {
....................       unsigned int8 dBytes[4];
....................       signed int32 dWord;
....................    }data;
....................    
....................    ads_read_command(ch, ADSreadData);
*
00798:  MOVFF  5DA,5DF
0079C:  MOVLW  10
0079E:  MOVLB  5
007A0:  MOVWF  xE0
007A2:  MOVLB  0
007A4:  BRA    0780
....................    data.dBytes[3] = 0;
007A6:  MOVLB  5
007A8:  CLRF   xDE
....................    data.dBytes[2] = spi_read2(0);
007AA:  MOVLB  E
007AC:  MOVF   x8D,W
007AE:  CLRF   x8D
007B0:  RRCF   x90,W
007B2:  BNC   07B0
007B4:  MOVFF  E8D,5DD
....................    data.dBytes[1] = spi_read2(0);
007B8:  MOVF   x8D,W
007BA:  CLRF   x8D
007BC:  RRCF   x90,W
007BE:  BNC   07BC
007C0:  MOVFF  E8D,5DC
....................    data.dBytes[0] = spi_read2(0);
007C4:  MOVF   x8D,W
007C6:  CLRF   x8D
007C8:  RRCF   x90,W
007CA:  BNC   07C8
007CC:  MOVFF  E8D,5DB
....................    
....................    //convert 24-bit 2's complement to 32-bit 2's complement
....................    if (0x80 & data.dBytes[2]) data.dBytes[3] |= 0xFF;
007D0:  MOVLB  5
007D2:  MOVF   xDD,W
007D4:  ANDLW  80
007D6:  BZ    07DC
007D8:  MOVLW  FF
007DA:  IORWF  xDE,F
....................    
....................    ads_deselect_all();
007DC:  MOVLB  0
007DE:  RCALL  012A
....................    return data.dWord;
007E0:  MOVFF  5DB,00
007E4:  MOVFF  5DC,01
007E8:  MOVFF  5DD,02
007EC:  MOVFF  5DE,03
007F0:  RETURN 0
.................... }
.................... 
.................... /*****************************************************************************/
.................... /* INITIALIZE A CHANNEL                                                      */
.................... /*****************************************************************************/
.................... 
.................... void ADS1220init(int8 ch, rc0=reg0config, rc1=reg1config, rc2=reg2config, rc3=reg3config)
.................... {
....................    ads_write_command(ch, ADSreset);   //reset the device
*
006CA:  MOVFF  5D7,5E0
006CE:  MOVLW  06
006D0:  MOVLB  5
006D2:  MOVWF  xE1
006D4:  MOVLB  0
006D6:  RCALL  066A
....................    delay_us(300);                    
006D8:  MOVLW  02
006DA:  MOVLB  5
006DC:  MOVWF  xDC
006DE:  MOVLW  96
006E0:  MOVWF  xDD
006E2:  MOVLB  0
006E4:  RCALL  0680
006E6:  MOVLB  5
006E8:  DECFSZ xDC,F
006EA:  BRA    06DE
....................    ads_write_reg(ch, reg0, rc0);   //send default configurations
006EC:  MOVFF  5D7,5DC
006F0:  CLRF   xDD
006F2:  MOVFF  5D8,5DE
006F6:  MOVLB  0
006F8:  RCALL  06A4
....................    ads_write_reg(ch, reg1, rc1);
006FA:  MOVFF  5D7,5DC
006FE:  MOVLW  04
00700:  MOVLB  5
00702:  MOVWF  xDD
00704:  MOVFF  5D9,5DE
00708:  MOVLB  0
0070A:  RCALL  06A4
....................    ads_write_reg(ch, reg2, rc2);
0070C:  MOVFF  5D7,5DC
00710:  MOVLW  08
00712:  MOVLB  5
00714:  MOVWF  xDD
00716:  MOVFF  5DA,5DE
0071A:  MOVLB  0
0071C:  RCALL  06A4
....................    ads_write_reg(ch, reg3, rc3);  
0071E:  MOVFF  5D7,5DC
00722:  MOVLW  0C
00724:  MOVLB  5
00726:  MOVWF  xDD
00728:  MOVFF  5DB,5DE
0072C:  MOVLB  0
0072E:  RCALL  06A4
00730:  GOTO   08DC (RETURN)
.................... }
.................... #endif 
.................... 
.................... #include <math.h>
.................... ////////////////////////////////////////////////////////////////////////////
.................... ////        (C) Copyright 1996,2011 Custom Computer Services            ////
.................... //// This source code may only be used by licensed users of the CCS C   ////
.................... //// compiler.  This source code may only be distributed to other       ////
.................... //// licensed users of the CCS C compiler.  No other use, reproduction  ////
.................... //// or distribution is permitted without written permission.           ////
.................... //// Derivative programs created using this software in object code     ////
.................... //// form are not restricted in any way.                                ////
.................... ////////////////////////////////////////////////////////////////////////////
.................... ////                                                                    ////
.................... //// History:                                                           ////
.................... ////  * 9/20/2001 :  Improvments are made to sin/cos code.              ////
.................... ////                 The code now is small, much faster,                ////
.................... ////                 and more accurate.                                 ////
.................... ////  * 2/21/2007 :  Compiler handles & operator differently and does   ////
.................... ////                 not return generic (int8 *) so type cast is done   ////
.................... ////  * 6/19/2010 :  Divisions by constants converted to multiplication ////
.................... ////                 by its inverse to improve computation speed        ////
.................... ////  * 1/21/2011 :  Constants used for double precision math updated   ////
.................... ////                 Updated routines include 64 bit versions of cos,   ////
.................... ////                 asin,atan,exp,log and dependant functions          ////
.................... ////  * 1/31/2011 :  Optimized current 32-bit float routines for cos    ////
.................... ////                 and log function                                   ////
.................... ////  * 6/13/2011 :  Fixed PCD overload CEIL_FLOOR functions for values ////
.................... ////                 greater then 10000000 and less then -10000000      ////
.................... ////                                                                    ////
.................... ////////////////////////////////////////////////////////////////////////////
.................... 
.................... #ifndef MATH_H
.................... #define MATH_H
.................... 
.................... #ifdef PI
.................... #undef  PI
.................... #endif
.................... #define PI     3.1415926535897932
.................... 
.................... 
.................... #define SQRT2  1.4142135623730950
.................... 
.................... //float const ps[4] = {5.9304945, 21.125224, 8.9403076, 0.29730279};
.................... //float const qs[4] = {1.0000000, 15.035723, 17.764134, 2.4934718};
.................... 
.................... ///////////////////////////// Round Functions //////////////////////////////
.................... 
.................... float32 CEIL_FLOOR(float32 x, unsigned int8 n)
.................... {
....................    float32 y, res;
....................    unsigned int16 l;
....................    int1 s;
.................... 
....................    s = 0;
*
020F8:  MOVLB  6
020FA:  BCF    x1B.0
....................    y = x;
020FC:  MOVFF  60F,614
02100:  MOVFF  60E,613
02104:  MOVFF  60D,612
02108:  MOVFF  60C,611
.................... 
....................    if (x < 0)
0210C:  MOVFF  60F,61F
02110:  MOVFF  60E,61E
02114:  MOVFF  60D,61D
02118:  MOVFF  60C,61C
0211C:  CLRF   x23
0211E:  CLRF   x22
02120:  CLRF   x21
02122:  CLRF   x20
02124:  MOVLB  0
02126:  CALL   16A8
0212A:  BNC   2138
....................    {
....................       s = 1;
0212C:  MOVLB  6
0212E:  BSF    x1B.0
....................       y = -y;
02130:  MOVF   x12,W
02132:  XORLW  80
02134:  MOVWF  x12
02136:  MOVLB  0
....................    }
.................... 
....................    if (y <= 32768.0)
02138:  MOVFF  614,61F
0213C:  MOVFF  613,61E
02140:  MOVFF  612,61D
02144:  MOVFF  611,61C
02148:  MOVLB  6
0214A:  CLRF   x23
0214C:  CLRF   x22
0214E:  CLRF   x21
02150:  MOVLW  8E
02152:  MOVWF  x20
02154:  MOVLB  0
02156:  CALL   16A8
0215A:  BC    215E
0215C:  BNZ   218C
....................       res = (float32)(unsigned int16)y;
0215E:  MOVFF  614,61F
02162:  MOVFF  613,61E
02166:  MOVFF  612,61D
0216A:  MOVFF  611,61C
0216E:  RCALL  2086
02170:  MOVFF  02,621
02174:  MOVFF  01,620
02178:  RCALL  20C2
0217A:  MOVFF  03,618
0217E:  MOVFF  02,617
02182:  MOVFF  01,616
02186:  MOVFF  00,615
0218A:  BRA    2328
.................... 
....................  else if (y < 10000000.0)
0218C:  MOVFF  614,61F
02190:  MOVFF  613,61E
02194:  MOVFF  612,61D
02198:  MOVFF  611,61C
0219C:  MOVLW  80
0219E:  MOVLB  6
021A0:  MOVWF  x23
021A2:  MOVLW  96
021A4:  MOVWF  x22
021A6:  MOVLW  18
021A8:  MOVWF  x21
021AA:  MOVLW  96
021AC:  MOVWF  x20
021AE:  MOVLB  0
021B0:  CALL   16A8
021B4:  BTFSS  FD8.0
021B6:  BRA    2318
....................    { 
....................       l = (unsigned int16)(y*0.000030517578125);
021B8:  MOVFF  614,61F
021BC:  MOVFF  613,61E
021C0:  MOVFF  612,61D
021C4:  MOVFF  611,61C
021C8:  MOVLB  6
021CA:  CLRF   x23
021CC:  CLRF   x22
021CE:  CLRF   x21
021D0:  MOVLW  70
021D2:  MOVWF  x20
021D4:  MOVLB  0
021D6:  CALL   133A
021DA:  MOVFF  03,61F
021DE:  MOVFF  02,61E
021E2:  MOVFF  01,61D
021E6:  MOVFF  00,61C
021EA:  RCALL  2086
021EC:  MOVFF  02,61A
021F0:  MOVFF  01,619
....................       y = 32768.0*(y*0.000030517578125 - (float32)l);
021F4:  MOVFF  614,61F
021F8:  MOVFF  613,61E
021FC:  MOVFF  612,61D
02200:  MOVFF  611,61C
02204:  MOVLB  6
02206:  CLRF   x23
02208:  CLRF   x22
0220A:  CLRF   x21
0220C:  MOVLW  70
0220E:  MOVWF  x20
02210:  MOVLB  0
02212:  CALL   133A
02216:  MOVFF  03,61F
0221A:  MOVFF  02,61E
0221E:  MOVFF  01,61D
02222:  MOVFF  00,61C
02226:  MOVFF  61A,621
0222A:  MOVFF  619,620
0222E:  RCALL  20C2
02230:  BSF    FD8.1
02232:  MOVFF  61F,623
02236:  MOVFF  61E,622
0223A:  MOVFF  61D,621
0223E:  MOVFF  61C,620
02242:  MOVFF  03,627
02246:  MOVFF  02,626
0224A:  MOVFF  01,625
0224E:  MOVFF  00,624
02252:  CALL   1430
02256:  MOVLB  6
02258:  CLRF   x1F
0225A:  CLRF   x1E
0225C:  CLRF   x1D
0225E:  MOVLW  8E
02260:  MOVWF  x1C
02262:  MOVFF  03,623
02266:  MOVFF  02,622
0226A:  MOVFF  01,621
0226E:  MOVFF  00,620
02272:  MOVLB  0
02274:  CALL   133A
02278:  MOVFF  03,614
0227C:  MOVFF  02,613
02280:  MOVFF  01,612
02284:  MOVFF  00,611
....................       res = 32768.0*(float32)l;
02288:  MOVFF  61A,621
0228C:  MOVFF  619,620
02290:  RCALL  20C2
02292:  MOVLB  6
02294:  CLRF   x1F
02296:  CLRF   x1E
02298:  CLRF   x1D
0229A:  MOVLW  8E
0229C:  MOVWF  x1C
0229E:  MOVFF  03,623
022A2:  MOVFF  02,622
022A6:  MOVFF  01,621
022AA:  MOVFF  00,620
022AE:  MOVLB  0
022B0:  CALL   133A
022B4:  MOVFF  03,618
022B8:  MOVFF  02,617
022BC:  MOVFF  01,616
022C0:  MOVFF  00,615
....................       res += (float32)(unsigned int16)y;
022C4:  MOVFF  614,61F
022C8:  MOVFF  613,61E
022CC:  MOVFF  612,61D
022D0:  MOVFF  611,61C
022D4:  RCALL  2086
022D6:  MOVFF  02,621
022DA:  MOVFF  01,620
022DE:  RCALL  20C2
022E0:  BCF    FD8.1
022E2:  MOVFF  618,623
022E6:  MOVFF  617,622
022EA:  MOVFF  616,621
022EE:  MOVFF  615,620
022F2:  MOVFF  03,627
022F6:  MOVFF  02,626
022FA:  MOVFF  01,625
022FE:  MOVFF  00,624
02302:  CALL   1430
02306:  MOVFF  03,618
0230A:  MOVFF  02,617
0230E:  MOVFF  01,616
02312:  MOVFF  00,615
....................    }
02316:  BRA    2328
.................... 
....................  else
....................   res = y;
02318:  MOVFF  614,618
0231C:  MOVFF  613,617
02320:  MOVFF  612,616
02324:  MOVFF  611,615
.................... 
....................  y = y - (float32)(unsigned int16)y;
02328:  MOVFF  614,61F
0232C:  MOVFF  613,61E
02330:  MOVFF  612,61D
02334:  MOVFF  611,61C
02338:  RCALL  2086
0233A:  MOVFF  02,621
0233E:  MOVFF  01,620
02342:  RCALL  20C2
02344:  BSF    FD8.1
02346:  MOVFF  614,623
0234A:  MOVFF  613,622
0234E:  MOVFF  612,621
02352:  MOVFF  611,620
02356:  MOVFF  03,627
0235A:  MOVFF  02,626
0235E:  MOVFF  01,625
02362:  MOVFF  00,624
02366:  CALL   1430
0236A:  MOVFF  03,614
0236E:  MOVFF  02,613
02372:  MOVFF  01,612
02376:  MOVFF  00,611
.................... 
....................  if (s)
0237A:  MOVLB  6
0237C:  BTFSS  x1B.0
0237E:  BRA    2386
....................   res = -res;
02380:  MOVF   x16,W
02382:  XORLW  80
02384:  MOVWF  x16
.................... 
....................  if (y != 0)
02386:  MOVFF  614,61F
0238A:  MOVFF  613,61E
0238E:  MOVFF  612,61D
02392:  MOVFF  611,61C
02396:  CLRF   x23
02398:  CLRF   x22
0239A:  CLRF   x21
0239C:  CLRF   x20
0239E:  MOVLB  0
023A0:  CALL   16A8
023A4:  BZ    241E
....................  {
....................   if (s == 1 && n == 0)
023A6:  MOVLB  6
023A8:  BTFSS  x1B.0
023AA:  BRA    23E4
023AC:  MOVF   x10,F
023AE:  BNZ   23E4
....................    res -= 1.0;
023B0:  BSF    FD8.1
023B2:  MOVFF  618,623
023B6:  MOVFF  617,622
023BA:  MOVFF  616,621
023BE:  MOVFF  615,620
023C2:  CLRF   x27
023C4:  CLRF   x26
023C6:  CLRF   x25
023C8:  MOVLW  7F
023CA:  MOVWF  x24
023CC:  MOVLB  0
023CE:  CALL   1430
023D2:  MOVFF  03,618
023D6:  MOVFF  02,617
023DA:  MOVFF  01,616
023DE:  MOVFF  00,615
023E2:  MOVLB  6
.................... 
....................   if (s == 0 && n == 1)
023E4:  BTFSC  x1B.0
023E6:  BRA    2420
023E8:  DECFSZ x10,W
023EA:  BRA    2420
....................    res += 1.0;
023EC:  BCF    FD8.1
023EE:  MOVFF  618,623
023F2:  MOVFF  617,622
023F6:  MOVFF  616,621
023FA:  MOVFF  615,620
023FE:  CLRF   x27
02400:  CLRF   x26
02402:  CLRF   x25
02404:  MOVLW  7F
02406:  MOVWF  x24
02408:  MOVLB  0
0240A:  CALL   1430
0240E:  MOVFF  03,618
02412:  MOVFF  02,617
02416:  MOVFF  01,616
0241A:  MOVFF  00,615
0241E:  MOVLB  6
....................  }
....................  if (x == 0)
02420:  MOVFF  60F,61F
02424:  MOVFF  60E,61E
02428:  MOVFF  60D,61D
0242C:  MOVFF  60C,61C
02430:  CLRF   x23
02432:  CLRF   x22
02434:  CLRF   x21
02436:  CLRF   x20
02438:  MOVLB  0
0243A:  CALL   16A8
0243E:  BNZ   244C
....................     res = 0;
02440:  MOVLB  6
02442:  CLRF   x18
02444:  CLRF   x17
02446:  CLRF   x16
02448:  CLRF   x15
0244A:  MOVLB  0
.................... 
....................  return (res);
0244C:  MOVFF  615,00
02450:  MOVFF  616,01
02454:  MOVFF  617,02
02458:  MOVFF  618,03
0245C:  RETURN 0
.................... }
.................... 
.................... // Overloaded Functions to take care for new Data types in PCD
.................... // Overloaded function CEIL_FLOOR() for data type - Float48
.................... #if defined(__PCD__)
.................... float48 CEIL_FLOOR(float48 x, unsigned int8 n)
.................... {
....................    float48 y, res;
....................    unsigned int32 l;
....................    int1 s;
.................... 
....................    s = 0;
....................    y = x;
.................... 
....................    if (x < 0)
....................    {
....................       s = 1;
....................       y = -y;
....................    }
.................... 
....................    if (y <= 32768.0)
....................       res = (float48)(unsigned int16)y;
.................... 
....................    else if (y < 549755813888.0)
....................    {
....................       l = (unsigned int32)(y*0.000030517578125);
....................       y = 32768.0*(y*0.000030517578125 - (float48)l);
....................       res = 32768.0*(float48)l;
....................       res += (float48)(unsigned int16)y;
....................    }
....................    else
....................    {  
....................       res = y;
....................       y = 0.0;
....................    }
....................    
....................    if(y != 0)
....................       y = y - (float48)(unsigned int16)y;
.................... 
....................    if (s)
....................       res = -res;
.................... 
....................    if (y != 0)
....................    {
....................       if (s == 1 && n == 0)
....................          res -= 1.0;
.................... 
....................       if (s == 0 && n == 1)
....................          res += 1.0;
....................    }
....................    if (x == 0)
....................       res = 0;
.................... 
....................    return (res);
.................... }
.................... 
.................... 
.................... // Overloaded function CEIL_FLOOR() for data type - Float64
.................... float64 CEIL_FLOOR(float64 x, unsigned int8 n)
.................... {
....................    float64 y, res;
....................    int64 l;
....................    int1 s;
.................... 
....................    s = 0;
....................    y = x;
.................... 
....................    if (x < 0)
....................    {
....................       s = 1;
....................       y = -y;
....................    }
.................... 
....................    if (y <= 32768.0)
....................       res = (float64)(unsigned int16)y;
....................    else if (y < 4503599627370496.0)
....................    {
....................       l = (int64)(y*0.000030517578125);
....................       y = 32768.0*(y*0.000030517578125 - (float64)l);
....................       res = 32768.0*(float64)l;
....................       res += (float64)(unsigned int16)y;
....................    }
....................    else
....................    {
....................       res = y;
....................       y = 0.0;
....................    }
....................    
....................    if(y != 0)
....................       y = y - (float64)(unsigned int16)y;
.................... 
....................    if (s)
....................       res = -res;
.................... 
....................    if (y != 0)
....................    {
....................       if (s == 1 && n == 0)
....................          res -= 1.0;
.................... 
....................       if (s == 0 && n == 1)
....................          res += 1.0;
....................    }
....................    
....................    if (x == 0)
....................       res = 0;
.................... 
....................    return (res);
.................... }
.................... #endif
.................... 
.................... ////////////////////////////////////////////////////////////////////////////
.................... //   float floor(float x)
.................... ////////////////////////////////////////////////////////////////////////////
.................... // Description : rounds down the number x.
.................... // Date : N/A
.................... //
.................... float32 floor(float32 x)
.................... {
....................    return CEIL_FLOOR(x,0);
*
0247C:  MOVFF  60B,60F
02480:  MOVFF  60A,60E
02484:  MOVFF  609,60D
02488:  MOVFF  608,60C
0248C:  MOVLB  6
0248E:  CLRF   x10
02490:  MOVLB  0
02492:  RCALL  20F8
02494:  GOTO   25A0 (RETURN)
.................... }
.................... // Following 2 functions are overloaded functions of floor() for PCD
.................... // Overloaded function floor() for data type - Float48
.................... #if defined(__PCD__)
.................... float48 floor(float48 x)
.................... {
....................    return CEIL_FLOOR(x, 0);
.................... }
.................... 
.................... // Overloaded function floor() for data type - Float64
.................... float64 floor(float64 x)
.................... {
....................    return CEIL_FLOOR(x, 0);
.................... }
.................... #endif
.................... 
.................... 
.................... ////////////////////////////////////////////////////////////////////////////
.................... //   float ceil(float x)
.................... ////////////////////////////////////////////////////////////////////////////
.................... // Description : rounds up the number x.
.................... // Date : N/A
.................... //
.................... float32 ceil(float32 x)
.................... {
....................    return CEIL_FLOOR(x, 1);
*
0245E:  MOVFF  60B,60F
02462:  MOVFF  60A,60E
02466:  MOVFF  609,60D
0246A:  MOVFF  608,60C
0246E:  MOVLW  01
02470:  MOVLB  6
02472:  MOVWF  x10
02474:  MOVLB  0
02476:  RCALL  20F8
02478:  GOTO   2558 (RETURN)
.................... }
.................... // Following 2 functions are overloaded functions of ceil() for PCD
.................... // Overloaded function ceil() for data type - Float48
.................... #if defined(__PCD__)
.................... float48 ceil(float48 x)
.................... {
....................    return CEIL_FLOOR(x, 1);
.................... }
.................... 
.................... // Overloaded function ceil() for data type - Float64
.................... float64 ceil(float64 x)
.................... {
....................    return CEIL_FLOOR(x, 1);
.................... }
.................... #endif
.................... 
....................  ////////////////////////////////////////////////////////////////////////////
.................... //   float fabs(float x)
.................... ////////////////////////////////////////////////////////////////////////////
.................... // Description : Computes the absolute value of floating point number x
.................... // Returns : returns the absolute value of x
.................... // Date : N/A
.................... //
.................... #define fabs abs
.................... 
.................... ////////////////////////////////////////////////////////////////////////////
.................... //   float fmod(float x)
.................... ////////////////////////////////////////////////////////////////////////////
.................... // Description : Computes the floating point remainder of x/y
.................... // Returns : returns the value of x= i*y, for some integer i such that, if y
.................... // is non zero, the result has the same isgn of x na dmagnitude less than the
.................... // magnitude of y. If y is zero then a domain error occurs.
.................... // Date : N/A
.................... //
.................... 
.................... float fmod(float32 x,float32 y)
.................... {
....................    float32 i;
....................    if (y!=0.0)
*
02498:  MOVFF  5FF,61F
0249C:  MOVFF  5FE,61E
024A0:  MOVFF  5FD,61D
024A4:  MOVFF  5FC,61C
024A8:  MOVLB  6
024AA:  CLRF   x23
024AC:  CLRF   x22
024AE:  CLRF   x21
024B0:  CLRF   x20
024B2:  MOVLB  0
024B4:  CALL   16A8
024B8:  BTFSC  FD8.2
024BA:  BRA    25FC
....................    {
....................       i=(x/y < 0.0)? ceil(x/y): floor(x/y);
024BC:  MOVFF  5FB,618
024C0:  MOVFF  5FA,617
024C4:  MOVFF  5F9,616
024C8:  MOVFF  5F8,615
024CC:  MOVFF  5FF,61C
024D0:  MOVFF  5FE,61B
024D4:  MOVFF  5FD,61A
024D8:  MOVFF  5FC,619
024DC:  CALL   1722
024E0:  MOVFF  03,607
024E4:  MOVFF  02,606
024E8:  MOVFF  01,605
024EC:  MOVFF  00,604
024F0:  MOVFF  03,61F
024F4:  MOVFF  02,61E
024F8:  MOVFF  01,61D
024FC:  MOVFF  00,61C
02500:  MOVLB  6
02502:  CLRF   x23
02504:  CLRF   x22
02506:  CLRF   x21
02508:  CLRF   x20
0250A:  MOVLB  0
0250C:  CALL   16A8
02510:  BNC   255A
02512:  MOVFF  5FB,618
02516:  MOVFF  5FA,617
0251A:  MOVFF  5F9,616
0251E:  MOVFF  5F8,615
02522:  MOVFF  5FF,61C
02526:  MOVFF  5FE,61B
0252A:  MOVFF  5FD,61A
0252E:  MOVFF  5FC,619
02532:  CALL   1722
02536:  MOVFF  03,607
0253A:  MOVFF  02,606
0253E:  MOVFF  01,605
02542:  MOVFF  00,604
02546:  MOVFF  03,60B
0254A:  MOVFF  02,60A
0254E:  MOVFF  01,609
02552:  MOVFF  00,608
02556:  BRA    245E
02558:  BRA    25A0
0255A:  MOVFF  5FB,618
0255E:  MOVFF  5FA,617
02562:  MOVFF  5F9,616
02566:  MOVFF  5F8,615
0256A:  MOVFF  5FF,61C
0256E:  MOVFF  5FE,61B
02572:  MOVFF  5FD,61A
02576:  MOVFF  5FC,619
0257A:  CALL   1722
0257E:  MOVFF  03,607
02582:  MOVFF  02,606
02586:  MOVFF  01,605
0258A:  MOVFF  00,604
0258E:  MOVFF  03,60B
02592:  MOVFF  02,60A
02596:  MOVFF  01,609
0259A:  MOVFF  00,608
0259E:  BRA    247C
025A0:  MOVFF  03,603
025A4:  MOVFF  02,602
025A8:  MOVFF  01,601
025AC:  MOVFF  00,600
....................       return(x-(i*y));
025B0:  MOVFF  603,61F
025B4:  MOVFF  602,61E
025B8:  MOVFF  601,61D
025BC:  MOVFF  600,61C
025C0:  MOVFF  5FF,623
025C4:  MOVFF  5FE,622
025C8:  MOVFF  5FD,621
025CC:  MOVFF  5FC,620
025D0:  CALL   133A
025D4:  BSF    FD8.1
025D6:  MOVFF  5FB,623
025DA:  MOVFF  5FA,622
025DE:  MOVFF  5F9,621
025E2:  MOVFF  5F8,620
025E6:  MOVFF  03,627
025EA:  MOVFF  02,626
025EE:  MOVFF  01,625
025F2:  MOVFF  00,624
025F6:  CALL   1430
025FA:  BRA    25FC
....................    }
....................    else
....................    {
....................    #ifdef _ERRNO
....................    {
....................       errno=EDOM;
....................    }
....................    #endif
....................    }
025FC:  RETURN 0
.................... }
.................... //Overloaded function for fmod() for PCD
.................... // Overloaded function fmod() for data type - Float48
.................... #if defined(__PCD__)
.................... float48 fmod(float48 x,float48 y)
.................... {
....................    float48 i;
....................    if (y!=0.0)
....................    {
....................       i=(x/y < 0.0)? ceil(x/y): floor(x/y);
....................       return(x-(i*y));
....................    }
....................    else
....................    {
....................    #ifdef _ERRNO
....................    {
....................       errno=EDOM;
....................    }
....................    #endif
....................    }
.................... }
.................... // Overloaded function fmod() for data type - Float64
.................... float64 fmod(float64 x,float64 y)
.................... {
....................    float64 i;
....................    if (y!=0.0)
....................    {
....................       i=(x/y < 0.0)? ceil(x/y): floor(x/y);
....................       return(x-(i*y));
....................    }
....................    else
....................    {
....................    #ifdef _ERRNO
....................    {
....................       errno=EDOM;
....................    }
....................    #endif
....................    }
.................... }
.................... #endif
.................... //////////////////// Exponential and logarithmic functions ////////////////////
.................... ////////////////////////////////////////////////////////////////////////////
.................... //   float exp(float x)
.................... ////////////////////////////////////////////////////////////////////////////
.................... // Description : returns the value (e^x)
.................... // Date : N/A
.................... //
.................... #define LN2 0.6931471805599453
.................... #define LN2_INV 1.4426950408889634073
.................... 
.................... float const pe[6] = {0.000207455774, 0.00127100575, 0.00965065093,
....................                      0.0554965651,  0.240227138,  0.693147172};
.................... 
.................... 
.................... float32 exp(float32 x)
.................... {
....................    float32 y, res, r;
....................    #if defined(__PCD__)
....................    int8 data1;
....................    #endif
....................    signed int8 n;
....................    int1 s;
....................    #ifdef _ERRNO
....................    if(x > 88.722838)
....................    {
....................       errno=ERANGE;
....................       return(0);
....................    }
....................    #endif
....................    n = (signed int16)(x*LN2_INV);
*
0298C:  MOVFF  5FF,61F
02990:  MOVFF  5FE,61E
02994:  MOVFF  5FD,61D
02998:  MOVFF  5FC,61C
0299C:  MOVLW  3B
0299E:  MOVLB  6
029A0:  MOVWF  x23
029A2:  MOVLW  AA
029A4:  MOVWF  x22
029A6:  MOVLW  38
029A8:  MOVWF  x21
029AA:  MOVLW  7F
029AC:  MOVWF  x20
029AE:  MOVLB  0
029B0:  CALL   133A
029B4:  MOVFF  03,61F
029B8:  MOVFF  02,61E
029BC:  MOVFF  01,61D
029C0:  MOVFF  00,61C
029C4:  CALL   2086
029C8:  MOVFF  01,60C
....................    s = 0;
029CC:  MOVLB  6
029CE:  BCF    x0D.0
....................    y = x;
029D0:  MOVFF  5FF,603
029D4:  MOVFF  5FE,602
029D8:  MOVFF  5FD,601
029DC:  MOVFF  5FC,600
.................... 
....................    if (x < 0)
029E0:  MOVFF  5FF,61F
029E4:  MOVFF  5FE,61E
029E8:  MOVFF  5FD,61D
029EC:  MOVFF  5FC,61C
029F0:  CLRF   x23
029F2:  CLRF   x22
029F4:  CLRF   x21
029F6:  CLRF   x20
029F8:  MOVLB  0
029FA:  CALL   16A8
029FE:  BNC   2A0E
....................    {
....................       s = 1;
02A00:  MOVLB  6
02A02:  BSF    x0D.0
....................       n = -n;
02A04:  NEGF   x0C
....................       y = -y;
02A06:  MOVF   x01,W
02A08:  XORLW  80
02A0A:  MOVWF  x01
02A0C:  MOVLB  0
....................    }
.................... 
....................    res = 0.0;
02A0E:  MOVLB  6
02A10:  CLRF   x07
02A12:  CLRF   x06
02A14:  CLRF   x05
02A16:  CLRF   x04
.................... #if !defined(__PCD__)
....................    *((unsigned int8 *)(&res)) = n + 0x7F;
02A18:  MOVLW  06
02A1A:  MOVWF  x0F
02A1C:  MOVLW  04
02A1E:  MOVFF  60F,FEA
02A22:  MOVWF  FE9
02A24:  MOVLW  7F
02A26:  ADDWF  x0C,W
02A28:  MOVWF  FEF
.................... #endif
.................... 
.................... #if defined(__PCD__)  // Takes care of IEEE format for PCD
....................    data1 = n+0x7F;
....................    if(bit_test(data1,0))
....................    bit_set(*(((unsigned int8 *)(&res)+2)),7);
....................    rotate_right(&data1,1);
....................    bit_clear(data1,7);
....................    *(((unsigned int8 *)(&res)+3)) = data1;
.................... #endif
.................... 
....................    y = y*LN2_INV - (float32)n;
02A2A:  MOVFF  603,61F
02A2E:  MOVFF  602,61E
02A32:  MOVFF  601,61D
02A36:  MOVFF  600,61C
02A3A:  MOVLW  3B
02A3C:  MOVWF  x23
02A3E:  MOVLW  AA
02A40:  MOVWF  x22
02A42:  MOVLW  38
02A44:  MOVWF  x21
02A46:  MOVLW  7F
02A48:  MOVWF  x20
02A4A:  MOVLB  0
02A4C:  CALL   133A
02A50:  MOVFF  03,611
02A54:  MOVFF  02,610
02A58:  MOVFF  01,60F
02A5C:  MOVFF  00,60E
02A60:  MOVLB  6
02A62:  CLRF   x13
02A64:  MOVFF  60C,612
02A68:  BTFSC  x12.7
02A6A:  DECF   x13,F
02A6C:  MOVLB  0
02A6E:  CALL   2036
02A72:  BSF    FD8.1
02A74:  MOVFF  611,623
02A78:  MOVFF  610,622
02A7C:  MOVFF  60F,621
02A80:  MOVFF  60E,620
02A84:  MOVFF  03,627
02A88:  MOVFF  02,626
02A8C:  MOVFF  01,625
02A90:  MOVFF  00,624
02A94:  CALL   1430
02A98:  MOVFF  03,603
02A9C:  MOVFF  02,602
02AA0:  MOVFF  01,601
02AA4:  MOVFF  00,600
.................... 
....................    r = pe[0]*y + pe[1];
02AA8:  MOVLW  7C
02AAA:  MOVLB  6
02AAC:  MOVWF  x1F
02AAE:  MOVLW  88
02AB0:  MOVWF  x1E
02AB2:  MOVLW  59
02AB4:  MOVWF  x1D
02AB6:  MOVLW  72
02AB8:  MOVWF  x1C
02ABA:  MOVFF  603,623
02ABE:  MOVFF  602,622
02AC2:  MOVFF  601,621
02AC6:  MOVFF  600,620
02ACA:  MOVLB  0
02ACC:  CALL   133A
02AD0:  MOVFF  03,611
02AD4:  MOVFF  02,610
02AD8:  MOVFF  01,60F
02ADC:  MOVFF  00,60E
02AE0:  BCF    FD8.1
02AE2:  MOVFF  03,623
02AE6:  MOVFF  02,622
02AEA:  MOVFF  01,621
02AEE:  MOVFF  00,620
02AF2:  MOVLW  E0
02AF4:  MOVLB  6
02AF6:  MOVWF  x27
02AF8:  MOVLW  97
02AFA:  MOVWF  x26
02AFC:  MOVLW  26
02AFE:  MOVWF  x25
02B00:  MOVLW  75
02B02:  MOVWF  x24
02B04:  MOVLB  0
02B06:  CALL   1430
02B0A:  MOVFF  03,60B
02B0E:  MOVFF  02,60A
02B12:  MOVFF  01,609
02B16:  MOVFF  00,608
....................    r = r*y + pe[2];
02B1A:  MOVFF  60B,61F
02B1E:  MOVFF  60A,61E
02B22:  MOVFF  609,61D
02B26:  MOVFF  608,61C
02B2A:  MOVFF  603,623
02B2E:  MOVFF  602,622
02B32:  MOVFF  601,621
02B36:  MOVFF  600,620
02B3A:  CALL   133A
02B3E:  MOVFF  03,611
02B42:  MOVFF  02,610
02B46:  MOVFF  01,60F
02B4A:  MOVFF  00,60E
02B4E:  BCF    FD8.1
02B50:  MOVFF  03,623
02B54:  MOVFF  02,622
02B58:  MOVFF  01,621
02B5C:  MOVFF  00,620
02B60:  MOVLW  C4
02B62:  MOVLB  6
02B64:  MOVWF  x27
02B66:  MOVLW  1D
02B68:  MOVWF  x26
02B6A:  MOVLW  1E
02B6C:  MOVWF  x25
02B6E:  MOVLW  78
02B70:  MOVWF  x24
02B72:  MOVLB  0
02B74:  CALL   1430
02B78:  MOVFF  03,60B
02B7C:  MOVFF  02,60A
02B80:  MOVFF  01,609
02B84:  MOVFF  00,608
....................    r = r*y + pe[3];
02B88:  MOVFF  60B,61F
02B8C:  MOVFF  60A,61E
02B90:  MOVFF  609,61D
02B94:  MOVFF  608,61C
02B98:  MOVFF  603,623
02B9C:  MOVFF  602,622
02BA0:  MOVFF  601,621
02BA4:  MOVFF  600,620
02BA8:  CALL   133A
02BAC:  MOVFF  03,611
02BB0:  MOVFF  02,610
02BB4:  MOVFF  01,60F
02BB8:  MOVFF  00,60E
02BBC:  BCF    FD8.1
02BBE:  MOVFF  03,623
02BC2:  MOVFF  02,622
02BC6:  MOVFF  01,621
02BCA:  MOVFF  00,620
02BCE:  MOVLW  5E
02BD0:  MOVLB  6
02BD2:  MOVWF  x27
02BD4:  MOVLW  50
02BD6:  MOVWF  x26
02BD8:  MOVLW  63
02BDA:  MOVWF  x25
02BDC:  MOVLW  7A
02BDE:  MOVWF  x24
02BE0:  MOVLB  0
02BE2:  CALL   1430
02BE6:  MOVFF  03,60B
02BEA:  MOVFF  02,60A
02BEE:  MOVFF  01,609
02BF2:  MOVFF  00,608
....................    r = r*y + pe[4];
02BF6:  MOVFF  60B,61F
02BFA:  MOVFF  60A,61E
02BFE:  MOVFF  609,61D
02C02:  MOVFF  608,61C
02C06:  MOVFF  603,623
02C0A:  MOVFF  602,622
02C0E:  MOVFF  601,621
02C12:  MOVFF  600,620
02C16:  CALL   133A
02C1A:  MOVFF  03,611
02C1E:  MOVFF  02,610
02C22:  MOVFF  01,60F
02C26:  MOVFF  00,60E
02C2A:  BCF    FD8.1
02C2C:  MOVFF  03,623
02C30:  MOVFF  02,622
02C34:  MOVFF  01,621
02C38:  MOVFF  00,620
02C3C:  MOVLW  1A
02C3E:  MOVLB  6
02C40:  MOVWF  x27
02C42:  MOVLW  FE
02C44:  MOVWF  x26
02C46:  MOVLW  75
02C48:  MOVWF  x25
02C4A:  MOVLW  7C
02C4C:  MOVWF  x24
02C4E:  MOVLB  0
02C50:  CALL   1430
02C54:  MOVFF  03,60B
02C58:  MOVFF  02,60A
02C5C:  MOVFF  01,609
02C60:  MOVFF  00,608
....................    r = r*y + pe[5];
02C64:  MOVFF  60B,61F
02C68:  MOVFF  60A,61E
02C6C:  MOVFF  609,61D
02C70:  MOVFF  608,61C
02C74:  MOVFF  603,623
02C78:  MOVFF  602,622
02C7C:  MOVFF  601,621
02C80:  MOVFF  600,620
02C84:  CALL   133A
02C88:  MOVFF  03,611
02C8C:  MOVFF  02,610
02C90:  MOVFF  01,60F
02C94:  MOVFF  00,60E
02C98:  BCF    FD8.1
02C9A:  MOVFF  03,623
02C9E:  MOVFF  02,622
02CA2:  MOVFF  01,621
02CA6:  MOVFF  00,620
02CAA:  MOVLW  18
02CAC:  MOVLB  6
02CAE:  MOVWF  x27
02CB0:  MOVLW  72
02CB2:  MOVWF  x26
02CB4:  MOVLW  31
02CB6:  MOVWF  x25
02CB8:  MOVLW  7E
02CBA:  MOVWF  x24
02CBC:  MOVLB  0
02CBE:  CALL   1430
02CC2:  MOVFF  03,60B
02CC6:  MOVFF  02,60A
02CCA:  MOVFF  01,609
02CCE:  MOVFF  00,608
.................... 
....................    res = res*(1.0 + y*r);
02CD2:  MOVFF  603,61F
02CD6:  MOVFF  602,61E
02CDA:  MOVFF  601,61D
02CDE:  MOVFF  600,61C
02CE2:  MOVFF  60B,623
02CE6:  MOVFF  60A,622
02CEA:  MOVFF  609,621
02CEE:  MOVFF  608,620
02CF2:  CALL   133A
02CF6:  BCF    FD8.1
02CF8:  MOVLB  6
02CFA:  CLRF   x23
02CFC:  CLRF   x22
02CFE:  CLRF   x21
02D00:  MOVLW  7F
02D02:  MOVWF  x20
02D04:  MOVFF  03,627
02D08:  MOVFF  02,626
02D0C:  MOVFF  01,625
02D10:  MOVFF  00,624
02D14:  MOVLB  0
02D16:  CALL   1430
02D1A:  MOVFF  607,61F
02D1E:  MOVFF  606,61E
02D22:  MOVFF  605,61D
02D26:  MOVFF  604,61C
02D2A:  MOVFF  03,623
02D2E:  MOVFF  02,622
02D32:  MOVFF  01,621
02D36:  MOVFF  00,620
02D3A:  CALL   133A
02D3E:  MOVFF  03,607
02D42:  MOVFF  02,606
02D46:  MOVFF  01,605
02D4A:  MOVFF  00,604
.................... 
....................    if (s)
02D4E:  MOVLB  6
02D50:  BTFSS  x0D.0
02D52:  BRA    2D86
....................       res = 1.0/res;
02D54:  CLRF   x18
02D56:  CLRF   x17
02D58:  CLRF   x16
02D5A:  MOVLW  7F
02D5C:  MOVWF  x15
02D5E:  MOVFF  607,61C
02D62:  MOVFF  606,61B
02D66:  MOVFF  605,61A
02D6A:  MOVFF  604,619
02D6E:  MOVLB  0
02D70:  CALL   1722
02D74:  MOVFF  03,607
02D78:  MOVFF  02,606
02D7C:  MOVFF  01,605
02D80:  MOVFF  00,604
02D84:  MOVLB  6
....................    return(res);
02D86:  MOVFF  604,00
02D8A:  MOVFF  605,01
02D8E:  MOVFF  606,02
02D92:  MOVFF  607,03
02D96:  MOVLB  0
02D98:  RETURN 0
.................... }
.................... 
.................... 
.................... //Overloaded function for exp() for PCD
.................... // Overloaded function exp() for data type - Float48
.................... #if defined(__PCD__)
.................... float48 exp(float48 x)
.................... {
....................    float48 y, res, r;
....................    int8 data1;
....................    signed int8 n;
....................    int1 s;
....................    #ifdef _ERRNO
....................    if(x > 88.722838)
....................    {
....................       errno=ERANGE;
....................       return(0);
....................    }
....................    #endif
....................    n = (signed int16)(x*LN2_INV);
....................    s = 0;
....................    y = x;
.................... 
....................    if (x < 0)
....................    {
....................       s = 1;
....................       n = -n;
....................       y = -y;
....................    }
.................... 
....................    res = 0.0;
.................... 
....................    data1 = n+0x7F;
....................    if(bit_test(data1,0))
....................    bit_set(*(((unsigned int8 *)(&res)+4)),7);
....................    rotate_right(&data1,1);
....................    bit_clear(data1,7);
....................    *(((unsigned int8 *)(&res)+5)) = data1;
.................... 
....................    y = y*LN2_INV - (float48)n;
.................... 
....................    r = pe[0]*y + pe[1];
....................    r = r*y + pe[2];
....................    r = r*y + pe[3];
....................    r = r*y + pe[4];
....................    r = r*y + pe[5];
.................... 
....................    res = res*(1.0 + y*r);
.................... 
....................    if (s)
....................       res = 1.0/res;
....................    return(res);
.................... }
.................... 
.................... // Overloaded function exp() for data type - Float64
.................... float64 const pe_64[12] ={9.30741400474913e-011,-4.28655416283316e-011,
....................                           8.71486547014137e-009,9.84458531538385e-008,
....................                           1.32588296983536e-006,1.52489283823016e-005,
....................                           0.000154037598423921,0.00133335487036216,
....................                           0.00961812936407326,0.0555041086222122,
....................                           0.240226506962827,0.693147180559823};
.................... 
.................... float64 exp(float64 x)
.................... {
....................    float64 y, res, r;
....................    unsigned int16 data1, data2;
....................    unsigned int16 *p;
....................    signed int16 n;
....................    int1 s;
....................    #ifdef _ERRNO
....................    if(x > 709.7827128)
....................    {
....................       errno=ERANGE;
....................       return(0);
....................    }
....................    #endif
....................    y = x*LN2_INV;
....................    n = (signed int16)y;
....................    s = 0;
....................    y = x;
.................... 
....................    if (x < 0)
....................    {
....................       s = 1;
....................       n = -n;
....................       y = -y;
....................    }
.................... 
....................    res = 0.0;
.................... 
.................... #if !defined(__PCD__)
....................    *((unsigned int16 *)(&res)) = n + 0x7F;
.................... #endif
....................    p= (((unsigned int16 *)(&res))+3);
....................    data1 = *p;
....................    data2 = *p;   
....................    data1 = n + 0x3FF;
....................    data1 = data1 <<4;
....................    if(bit_test(data2,15))
....................    bit_set(data1,15);
....................    data2 = data2 & 0x000F;
....................    data1 ^= data2;
.................... 
....................    *(((unsigned int16 *)(&res)+3)) = data1;
.................... 
.................... 
....................    y = y*LN2_INV - (float64)n;
.................... 
....................    r = pe_64[0]*y + pe_64[1];
....................    r = r*y + pe_64[2];
....................    r = r*y + pe_64[3];
....................    r = r*y + pe_64[4];
....................    r = r*y + pe_64[5];
....................    r = r*y + pe_64[6];
....................    r = r*y + pe_64[7];
....................    r = r*y + pe_64[8];
....................    r = r*y + pe_64[9];
....................    r = r*y + pe_64[10];
....................    r = r*y + pe_64[11];
....................    
....................    res = res*(1.0 + y*r);
.................... 
....................    if (s)
....................       res = 1.0/res;
....................    return(res);
.................... }
.................... #ENDIF
.................... 
.................... 
.................... /************************************************************/
.................... 
.................... float32 const pl[4] = {-1.080310025160955, 1.999999947089217};
.................... float32 const ql[4] = {0.091284365719509, -0.873491916557671};
.................... 
.................... ////////////////////////////////////////////////////////////////////////////
.................... //   float log(float x)
.................... ////////////////////////////////////////////////////////////////////////////
.................... // Description : returns the the natural log of x
.................... // Date : N/A
.................... //
.................... float32 log(float32 x)
.................... {
....................    float32 y, res, r, y2;
....................    #if defined(__PCD__)
....................    unsigned int8  data1,data2;
....................    #endif
....................    signed int8 n;
....................    #ifdef _ERRNO
....................    if(x <0)
....................    {
....................       errno=EDOM;
....................    }
....................    if(x ==0)
....................    {
....................       errno=ERANGE;
....................       return(0);
....................    }
....................    #endif
....................    y = x;
*
025FE:  MOVFF  5FF,603
02602:  MOVFF  5FE,602
02606:  MOVFF  5FD,601
0260A:  MOVFF  5FC,600
.................... 
....................    if (y != 1.0)
0260E:  MOVFF  603,61F
02612:  MOVFF  602,61E
02616:  MOVFF  601,61D
0261A:  MOVFF  600,61C
0261E:  MOVLB  6
02620:  CLRF   x23
02622:  CLRF   x22
02624:  CLRF   x21
02626:  MOVLW  7F
02628:  MOVWF  x20
0262A:  MOVLB  0
0262C:  CALL   16A8
02630:  BTFSC  FD8.2
02632:  BRA    296E
....................    {
.................... #if !defined(__PCD__)
....................     *((unsigned int8 *)(&y)) = 0x7E; 
02634:  MOVLW  06
02636:  MOVLB  6
02638:  MOVWF  FEA
0263A:  CLRF   FE9
0263C:  MOVLW  7E
0263E:  MOVWF  FEF
.................... #endif
.................... 
.................... #if defined(__PCD__) // Takes care of IEEE format
....................    data2 = *(((unsigned int8 *)(&y))+3);
....................    *(((unsigned int8 *)(&y))+3) = 0x3F;
....................    data1 = *(((unsigned int8 *)(&y))+2);
....................    bit_clear(data1,7);
....................    *(((unsigned int8 *)(&y))+2) = data1;
....................    if(bit_test(data2,7))
....................      bit_set(*(((unsigned int8 *)(&y))+3),7);
.................... #endif
.................... 
....................       y = (y - 1.0)/(y + 1.0);
02640:  BSF    FD8.1
02642:  MOVFF  603,623
02646:  MOVFF  602,622
0264A:  MOVFF  601,621
0264E:  MOVFF  600,620
02652:  CLRF   x27
02654:  CLRF   x26
02656:  CLRF   x25
02658:  MOVLW  7F
0265A:  MOVWF  x24
0265C:  MOVLB  0
0265E:  CALL   1430
02662:  MOVFF  03,614
02666:  MOVFF  02,613
0266A:  MOVFF  01,612
0266E:  MOVFF  00,611
02672:  BCF    FD8.1
02674:  MOVFF  603,623
02678:  MOVFF  602,622
0267C:  MOVFF  601,621
02680:  MOVFF  600,620
02684:  MOVLB  6
02686:  CLRF   x27
02688:  CLRF   x26
0268A:  CLRF   x25
0268C:  MOVLW  7F
0268E:  MOVWF  x24
02690:  MOVLB  0
02692:  CALL   1430
02696:  MOVFF  614,618
0269A:  MOVFF  613,617
0269E:  MOVFF  612,616
026A2:  MOVFF  611,615
026A6:  MOVFF  03,61C
026AA:  MOVFF  02,61B
026AE:  MOVFF  01,61A
026B2:  MOVFF  00,619
026B6:  CALL   1722
026BA:  MOVFF  03,603
026BE:  MOVFF  02,602
026C2:  MOVFF  01,601
026C6:  MOVFF  00,600
.................... 
....................       y2=y*y;
026CA:  MOVFF  603,61F
026CE:  MOVFF  602,61E
026D2:  MOVFF  601,61D
026D6:  MOVFF  600,61C
026DA:  MOVFF  603,623
026DE:  MOVFF  602,622
026E2:  MOVFF  601,621
026E6:  MOVFF  600,620
026EA:  CALL   133A
026EE:  MOVFF  03,60F
026F2:  MOVFF  02,60E
026F6:  MOVFF  01,60D
026FA:  MOVFF  00,60C
.................... 
....................       res = pl[0]*y2 + pl[1];
026FE:  MOVLW  99
02700:  MOVLB  6
02702:  MOVWF  x1F
02704:  MOVLW  47
02706:  MOVWF  x1E
02708:  MOVLW  8A
0270A:  MOVWF  x1D
0270C:  MOVLW  7F
0270E:  MOVWF  x1C
02710:  MOVFF  60F,623
02714:  MOVFF  60E,622
02718:  MOVFF  60D,621
0271C:  MOVFF  60C,620
02720:  MOVLB  0
02722:  CALL   133A
02726:  MOVFF  03,614
0272A:  MOVFF  02,613
0272E:  MOVFF  01,612
02732:  MOVFF  00,611
02736:  BCF    FD8.1
02738:  MOVFF  03,623
0273C:  MOVFF  02,622
02740:  MOVFF  01,621
02744:  MOVFF  00,620
02748:  MOVLB  6
0274A:  CLRF   x27
0274C:  CLRF   x26
0274E:  CLRF   x25
02750:  MOVLW  80
02752:  MOVWF  x24
02754:  MOVLB  0
02756:  CALL   1430
0275A:  MOVFF  03,607
0275E:  MOVFF  02,606
02762:  MOVFF  01,605
02766:  MOVFF  00,604
.................... 
....................       r = ql[0]*y2 + ql[1];
0276A:  MOVLW  4C
0276C:  MOVLB  6
0276E:  MOVWF  x1F
02770:  MOVLW  F3
02772:  MOVWF  x1E
02774:  MOVLW  3A
02776:  MOVWF  x1D
02778:  MOVLW  7B
0277A:  MOVWF  x1C
0277C:  MOVFF  60F,623
02780:  MOVFF  60E,622
02784:  MOVFF  60D,621
02788:  MOVFF  60C,620
0278C:  MOVLB  0
0278E:  CALL   133A
02792:  MOVFF  03,614
02796:  MOVFF  02,613
0279A:  MOVFF  01,612
0279E:  MOVFF  00,611
027A2:  BCF    FD8.1
027A4:  MOVFF  03,623
027A8:  MOVFF  02,622
027AC:  MOVFF  01,621
027B0:  MOVFF  00,620
027B4:  MOVLW  2B
027B6:  MOVLB  6
027B8:  MOVWF  x27
027BA:  MOVLW  9D
027BC:  MOVWF  x26
027BE:  MOVLW  DF
027C0:  MOVWF  x25
027C2:  MOVLW  7E
027C4:  MOVWF  x24
027C6:  MOVLB  0
027C8:  CALL   1430
027CC:  MOVFF  03,60B
027D0:  MOVFF  02,60A
027D4:  MOVFF  01,609
027D8:  MOVFF  00,608
....................       r = r*y2 + 1.0;
027DC:  MOVFF  60B,61F
027E0:  MOVFF  60A,61E
027E4:  MOVFF  609,61D
027E8:  MOVFF  608,61C
027EC:  MOVFF  60F,623
027F0:  MOVFF  60E,622
027F4:  MOVFF  60D,621
027F8:  MOVFF  60C,620
027FC:  CALL   133A
02800:  MOVFF  03,614
02804:  MOVFF  02,613
02808:  MOVFF  01,612
0280C:  MOVFF  00,611
02810:  BCF    FD8.1
02812:  MOVFF  03,623
02816:  MOVFF  02,622
0281A:  MOVFF  01,621
0281E:  MOVFF  00,620
02822:  MOVLB  6
02824:  CLRF   x27
02826:  CLRF   x26
02828:  CLRF   x25
0282A:  MOVLW  7F
0282C:  MOVWF  x24
0282E:  MOVLB  0
02830:  CALL   1430
02834:  MOVFF  03,60B
02838:  MOVFF  02,60A
0283C:  MOVFF  01,609
02840:  MOVFF  00,608
.................... 
....................       res = y*res/r;
02844:  MOVFF  603,61F
02848:  MOVFF  602,61E
0284C:  MOVFF  601,61D
02850:  MOVFF  600,61C
02854:  MOVFF  607,623
02858:  MOVFF  606,622
0285C:  MOVFF  605,621
02860:  MOVFF  604,620
02864:  CALL   133A
02868:  MOVFF  03,614
0286C:  MOVFF  02,613
02870:  MOVFF  01,612
02874:  MOVFF  00,611
02878:  MOVFF  03,618
0287C:  MOVFF  02,617
02880:  MOVFF  01,616
02884:  MOVFF  00,615
02888:  MOVFF  60B,61C
0288C:  MOVFF  60A,61B
02890:  MOVFF  609,61A
02894:  MOVFF  608,619
02898:  CALL   1722
0289C:  MOVFF  03,607
028A0:  MOVFF  02,606
028A4:  MOVFF  01,605
028A8:  MOVFF  00,604
.................... #if !defined(__PCD__)
....................       n = *((unsigned int8 *)(&x)) - 0x7E;
028AC:  MOVLW  05
028AE:  MOVLB  6
028B0:  MOVWF  x12
028B2:  MOVLW  FC
028B4:  MOVFF  612,FEA
028B8:  MOVWF  FE9
028BA:  MOVLW  7E
028BC:  SUBWF  FEF,W
028BE:  MOVWF  x10
.................... #endif
.................... #if defined(__PCD__) 
....................     data1 = *(((unsigned int8 *)(&x)+3));
....................     rotate_left(&data1,1);
....................     data2 = *(((unsigned int8 *)(&x)+2));
....................     if(bit_test (data2,7))
....................       bit_set(data1,0);
....................     n = data1 - 0x7E;
.................... #endif
.................... 
....................       if (n<0) 
028C0:  BTFSS  x10.7
028C2:  BRA    28EE
....................          r = -(float32)-n;
028C4:  MOVLW  00
028C6:  BSF    FD8.0
028C8:  SUBFWB x10,W
028CA:  CLRF   x13
028CC:  MOVWF  x12
028CE:  BTFSC  x12.7
028D0:  DECF   x13,F
028D2:  MOVLB  0
028D4:  CALL   2036
028D8:  MOVFF  00,608
028DC:  MOVF   01,W
028DE:  XORLW  80
028E0:  MOVLB  6
028E2:  MOVWF  x09
028E4:  MOVFF  02,60A
028E8:  MOVFF  03,60B
028EC:  BRA    2910
....................       else
....................          r = (float32)n;
028EE:  CLRF   x13
028F0:  MOVFF  610,612
028F4:  BTFSC  x12.7
028F6:  DECF   x13,F
028F8:  MOVLB  0
028FA:  CALL   2036
028FE:  MOVFF  03,60B
02902:  MOVFF  02,60A
02906:  MOVFF  01,609
0290A:  MOVFF  00,608
0290E:  MOVLB  6
.................... 
....................       res += r*LN2;
02910:  MOVFF  60B,61F
02914:  MOVFF  60A,61E
02918:  MOVFF  609,61D
0291C:  MOVFF  608,61C
02920:  MOVLW  18
02922:  MOVWF  x23
02924:  MOVLW  72
02926:  MOVWF  x22
02928:  MOVLW  31
0292A:  MOVWF  x21
0292C:  MOVLW  7E
0292E:  MOVWF  x20
02930:  MOVLB  0
02932:  CALL   133A
02936:  BCF    FD8.1
02938:  MOVFF  607,623
0293C:  MOVFF  606,622
02940:  MOVFF  605,621
02944:  MOVFF  604,620
02948:  MOVFF  03,627
0294C:  MOVFF  02,626
02950:  MOVFF  01,625
02954:  MOVFF  00,624
02958:  CALL   1430
0295C:  MOVFF  03,607
02960:  MOVFF  02,606
02964:  MOVFF  01,605
02968:  MOVFF  00,604
....................    }
0296C:  BRA    297A
.................... 
....................    else
....................       res = 0.0;
0296E:  MOVLB  6
02970:  CLRF   x07
02972:  CLRF   x06
02974:  CLRF   x05
02976:  CLRF   x04
02978:  MOVLB  0
.................... 
....................    return(res);
0297A:  MOVFF  604,00
0297E:  MOVFF  605,01
02982:  MOVFF  606,02
02986:  MOVFF  607,03
0298A:  RETURN 0
.................... }
.................... 
.................... //Overloaded function for log() for PCD
.................... // Overloaded function log() for data type - Float48
.................... #if defined(__PCD__)
.................... // Overloaded function log() for data type - float64
.................... float64 const pl_64[4] = {-0.145694052150681, 1.365485300000370,
....................                           -3.120535668274329, 2.000000000000000};
.................... 
.................... float64 const ql_64[4] = {0.006047500465908, -0.208298281937234,
....................                           1.113943039156721, -1.893601167470470};
.................... 
.................... float48 log(float48 x)
.................... {
....................    float48 y, res, r, y2;
....................    unsigned int8  data1,data2;
....................    signed int8 n;
.................... #ifdef _ERRNO
....................    if(x <0)
....................    {
....................       errno=EDOM;
....................    }
....................    if(x ==0)
....................    {
....................       errno=ERANGE;
....................       return(0);
....................    }
.................... #endif
....................    y = x;
.................... 
....................    if (y != 1.0)
....................    {
.................... 
.................... #if !defined(__PCD__)
....................       *((unsigned int8 *)(&y)) = 0x7E; 
.................... #endif
....................       data2 = *(((unsigned int8 *)(&y))+5);
....................       *(((unsigned int8 *)(&y))+5) = 0x3F;
....................       data1 = *(((unsigned int8 *)(&y))+4);
....................       bit_clear(data1,7);
....................       *(((unsigned int8 *)(&y))+4) = data1;
.................... 
....................       if(bit_test(data2,7))
....................       bit_set(*(((unsigned int8 *)(&y))+4),7);
....................       y = (y - 1.0)/(y + 1.0);
.................... 
....................       y2=y*y;
.................... 
....................       res = pl_64[0]*y2 + pl_64[1];
....................       res = res*y2 + pl_64[2];
....................       res = res*y2 + pl_64[3];
.................... 
....................       r = ql_64[0]*y2 + ql_64[1];
....................       r = r*y2 + ql_64[2];
....................       r = r*y2 + ql_64[3];
....................       r = r*y2 + 1.0; 
....................       res = y*res/r;
.................... 
....................       data1 = *(((unsigned int8 *)(&x)+5));
....................       rotate_left(&data1,1);
....................       data2 = *(((unsigned int8 *)(&x)+4));
....................       if(bit_test (data2,7))
....................       bit_set(data1,0);
....................       
....................       n = data1 - 0x7E;
.................... 
....................       if (n<0)
....................       r = -(float48)-n;
....................       else
....................       r = (float48)n;
.................... 
....................       res += r*LN2;
....................    }
.................... 
....................    else
....................    res = 0.0;
.................... 
....................    return(res);
.................... }
.................... 
.................... float64 log(float64 x)
.................... {
....................    float64 y, res, r, y2;
....................    unsigned int16  data1,data2;
....................    unsigned int16 *p;
....................    signed int16 n;
....................    #ifdef _ERRNO
....................    if(x <0)
....................    {
....................       errno=EDOM;
....................    }
....................    if(x ==0)
....................    {
....................       errno=ERANGE;
....................       return(0);
....................    }
....................    #endif
....................    y = x;
.................... 
....................    if (y != 1.0)
....................    {
....................    #if !defined(__PCD__)
....................        *((unsigned int8 *)(&y)) = 0x7E; 
....................    #endif
....................       p= (((unsigned int16 *)(&y))+3);
....................       data1 = *p;
....................       data2 = *p;
....................       data1 = 0x3FE;
....................       data1 = data1 <<4;
....................       if(bit_test (data2,15))
....................          bit_set(data1,15);
....................       data2 = data2 & 0x000F;
....................       data1 ^=data2;
.................... 
....................       *p = data1;
.................... 
....................       y = (y - 1.0)/(y + 1.0);
.................... 
....................       y2=y*y;
.................... 
....................       res = pl_64[0]*y2 + pl_64[1];
....................       res = res*y2 + pl_64[2];
....................       res = res*y2 + pl_64[3];
.................... 
....................       r = ql_64[0]*y2 + ql_64[1];
....................       r = r*y2 + ql_64[2];
....................       r = r*y2 + ql_64[3];
....................       r = r*y2 + 1.0;
.................... 
....................       res = y*res/r;
....................  
....................       p= (((unsigned int16 *)(&x))+3);
....................       data1 = *p;
....................       bit_clear(data1,15);
....................       data1 = data1 >>4;    
....................       n = data1 - 0x3FE;
.................... 
.................... 
....................       if (n<0)
....................          r = -(float64)-n;
....................       else
....................          r = (float64)n;
.................... 
....................       res += r*LN2;
....................    }
.................... 
....................    else
....................       res = 0.0;
.................... 
....................    return(res);
.................... }
.................... #endif
.................... 
.................... 
.................... #define LN10 2.3025850929940456
.................... #define LN10_INV 0.4342944819032518276
.................... 
.................... ////////////////////////////////////////////////////////////////////////////
.................... //   float log10(float x)
.................... ////////////////////////////////////////////////////////////////////////////
.................... // Description : returns the the log base 10 of x
.................... // Date : N/A
.................... //
.................... float32 log10(float32 x)
.................... {
....................    float32 r;
.................... 
....................    r = log(x);
....................    r = r*LN10_INV;
....................    return(r);
.................... }
.................... 
.................... //Overloaded functions for log10() for PCD
.................... // Overloaded function log10() for data type - Float48
.................... #if defined(__PCD__)
.................... float48 log10(float48 x)
.................... {
....................    float48 r;
.................... 
....................    r = log(x);
....................    r = r*LN10_INV;
....................    return(r);
.................... }
.................... 
.................... // Overloaded function log10() for data type - Float64
.................... float64 log10(float64 x)
.................... {
....................    float64 r;
.................... 
....................    r = log(x);
....................    r = r*LN10_INV;
....................    return(r);
.................... }
.................... #endif
.................... ////////////////////////////////////////////////////////////////////////////
.................... //   float modf(float x)
.................... ////////////////////////////////////////////////////////////////////////////
.................... // Description :breaks the argument value int integral and fractional parts,
.................... // ach of which have the same sign as the argument.  It stores the integral part
.................... // as a float in the object pointed to by the iptr
.................... // Returns : returns the signed fractional part of value.
.................... // Date : N/A
.................... //
.................... 
.................... float32 modf(float32 value,float32 *iptr)
.................... {
....................    *iptr=(value < 0.0)? ceil(value): floor(value);
....................    return(value - *iptr);
.................... }
.................... //Overloaded functions for modf() for PCD
.................... // Overloaded function modf() for data type - Float48
.................... #if defined(__PCD__)
.................... float48 modf(float48 value,float48 *iptr)
.................... {
....................    *iptr=(value < 0.0)? ceil(value): floor(value);
....................    return(value - *iptr);
.................... }
.................... // Overloaded function modf() for data type - Float64
.................... float64 modf(float64 value,float64 *iptr)
.................... {
....................    *iptr=(value < 0.0)? ceil(value): floor(value);
....................    return(value - *iptr);
.................... }
.................... #endif
.................... 
.................... ////////////////////////////////////////////////////////////////////////////
.................... //   float pwr(float x,float y)
.................... ////////////////////////////////////////////////////////////////////////////
.................... // Description : returns the value (x^y)
.................... // Date : N/A
.................... // Note : 0 is returned when the function will generate an imaginary number
.................... //
.................... float32 pwr(float32 x,float32 y)
.................... {
....................    if(0 > x && fmod(y, 1) == 0) {
....................       if(fmod(y, 2) == 0) {
....................          return (exp(log(-x) * y));
....................       } else {
....................          return (-exp(log(-x) * y));
....................       }
....................    } else if(0 > x && fmod(y, 1) != 0) {
....................       return 0;
....................    } else {
....................       if(x != 0 || 0 >= y) {
....................          return (exp(log(x) * y));
....................       }
....................    }
.................... }
.................... //Overloaded functions for pwr() for PCD
.................... // Overloaded function pwr() for data type - Float48
.................... #if defined(__PCD__)
.................... float48 pwr(float48 x,float48 y)
.................... {
....................    if(0 > x && fmod(y, 1) == 0) {
....................       if(fmod(y, 2) == 0) {
....................          return (exp(log(-x) * y));
....................       } else {
....................          return (-exp(log(-x) * y));
....................       }
....................    } else if(0 > x && fmod(y, 1) != 0) {
....................       return 0;
....................    } else {
....................       if(x != 0 || 0 >= y) {
....................          return (exp(log(x) * y));
....................       } else return 0;
....................    }
.................... }
.................... // Overloaded function pwr() for data type - Float64
.................... float64 pwr(float64 x,float64 y)
.................... {
....................    if(0 > x && fmod(y, 1) == 0) {
....................       if(fmod(y, 2) == 0) {
....................          return (exp(log(-x) * y));
....................       } else {
....................          return (-exp(log(-x) * y));
....................       }
....................    } else if(0 > x && fmod(y, 1) != 0) {
....................       return 0;
....................    } else {
....................       if(x != 0 || 0 >= y) {
....................          return (exp(log(x) * y));
....................       } else return 0;
....................    }
.................... }
.................... #endif
.................... 
.................... //////////////////// Power functions ////////////////////
.................... 
.................... ////////////////////////////////////////////////////////////////////////////
.................... //   float pow(float x,float y)
.................... ////////////////////////////////////////////////////////////////////////////
.................... // Description : returns the value (x^y)
.................... // Date : N/A
.................... // Note : 0 is returned when the function will generate an imaginary number
.................... //
.................... float32 pow(float32 x,float32 y)
.................... {
....................    if(0 > x && fmod(y, 1) == 0) {
*
02D9A:  MOVFF  5F3,61F
02D9E:  MOVFF  5F2,61E
02DA2:  MOVFF  5F1,61D
02DA6:  MOVFF  5F0,61C
02DAA:  MOVLB  6
02DAC:  CLRF   x23
02DAE:  CLRF   x22
02DB0:  CLRF   x21
02DB2:  CLRF   x20
02DB4:  MOVLB  0
02DB6:  CALL   16A8
02DBA:  BTFSS  FD8.0
02DBC:  BRA    2F58
02DBE:  MOVFF  5F7,5FB
02DC2:  MOVFF  5F6,5FA
02DC6:  MOVFF  5F5,5F9
02DCA:  MOVFF  5F4,5F8
02DCE:  MOVLB  5
02DD0:  CLRF   xFF
02DD2:  CLRF   xFE
02DD4:  CLRF   xFD
02DD6:  MOVLW  7F
02DD8:  MOVWF  xFC
02DDA:  MOVLB  0
02DDC:  CALL   2498
02DE0:  MOVFF  03,5FB
02DE4:  MOVFF  02,5FA
02DE8:  MOVFF  01,5F9
02DEC:  MOVFF  00,5F8
02DF0:  MOVFF  03,61F
02DF4:  MOVFF  02,61E
02DF8:  MOVFF  01,61D
02DFC:  MOVFF  00,61C
02E00:  MOVLB  6
02E02:  CLRF   x23
02E04:  CLRF   x22
02E06:  CLRF   x21
02E08:  CLRF   x20
02E0A:  MOVLB  0
02E0C:  CALL   16A8
02E10:  BTFSS  FD8.2
02E12:  BRA    2F58
....................       if(fmod(y, 2) == 0) {
02E14:  MOVFF  5F7,5FB
02E18:  MOVFF  5F6,5FA
02E1C:  MOVFF  5F5,5F9
02E20:  MOVFF  5F4,5F8
02E24:  MOVLB  5
02E26:  CLRF   xFF
02E28:  CLRF   xFE
02E2A:  CLRF   xFD
02E2C:  MOVLW  80
02E2E:  MOVWF  xFC
02E30:  MOVLB  0
02E32:  CALL   2498
02E36:  MOVFF  03,5FB
02E3A:  MOVFF  02,5FA
02E3E:  MOVFF  01,5F9
02E42:  MOVFF  00,5F8
02E46:  MOVFF  03,61F
02E4A:  MOVFF  02,61E
02E4E:  MOVFF  01,61D
02E52:  MOVFF  00,61C
02E56:  MOVLB  6
02E58:  CLRF   x23
02E5A:  CLRF   x22
02E5C:  CLRF   x21
02E5E:  CLRF   x20
02E60:  MOVLB  0
02E62:  CALL   16A8
02E66:  BNZ   2EDE
....................          return (exp(log(-x) * y));
02E68:  MOVLB  5
02E6A:  MOVF   xF1,W
02E6C:  XORLW  80
02E6E:  MOVWF  xF9
02E70:  MOVFF  5F3,5FF
02E74:  MOVFF  5F2,5FE
02E78:  MOVWF  xFD
02E7A:  MOVFF  5F0,5FC
02E7E:  MOVLB  0
02E80:  CALL   25FE
02E84:  MOVFF  03,5FB
02E88:  MOVFF  02,5FA
02E8C:  MOVFF  01,5F9
02E90:  MOVFF  00,5F8
02E94:  MOVFF  03,61F
02E98:  MOVFF  02,61E
02E9C:  MOVFF  01,61D
02EA0:  MOVFF  00,61C
02EA4:  MOVFF  5F7,623
02EA8:  MOVFF  5F6,622
02EAC:  MOVFF  5F5,621
02EB0:  MOVFF  5F4,620
02EB4:  CALL   133A
02EB8:  MOVFF  03,5FB
02EBC:  MOVFF  02,5FA
02EC0:  MOVFF  01,5F9
02EC4:  MOVFF  00,5F8
02EC8:  MOVFF  03,5FF
02ECC:  MOVFF  02,5FE
02ED0:  MOVFF  01,5FD
02ED4:  MOVFF  00,5FC
02ED8:  RCALL  298C
02EDA:  BRA    3096
....................       } else {
02EDC:  BRA    2F56
....................          return (-exp(log(-x) * y));
02EDE:  MOVLB  5
02EE0:  MOVF   xF1,W
02EE2:  XORLW  80
02EE4:  MOVWF  xF9
02EE6:  MOVFF  5F3,5FF
02EEA:  MOVFF  5F2,5FE
02EEE:  MOVWF  xFD
02EF0:  MOVFF  5F0,5FC
02EF4:  MOVLB  0
02EF6:  CALL   25FE
02EFA:  MOVFF  03,5FB
02EFE:  MOVFF  02,5FA
02F02:  MOVFF  01,5F9
02F06:  MOVFF  00,5F8
02F0A:  MOVFF  03,61F
02F0E:  MOVFF  02,61E
02F12:  MOVFF  01,61D
02F16:  MOVFF  00,61C
02F1A:  MOVFF  5F7,623
02F1E:  MOVFF  5F6,622
02F22:  MOVFF  5F5,621
02F26:  MOVFF  5F4,620
02F2A:  CALL   133A
02F2E:  MOVFF  03,5FB
02F32:  MOVFF  02,5FA
02F36:  MOVFF  01,5F9
02F3A:  MOVFF  00,5F8
02F3E:  MOVFF  03,5FF
02F42:  MOVFF  02,5FE
02F46:  MOVFF  01,5FD
02F4A:  MOVFF  00,5FC
02F4E:  RCALL  298C
02F50:  MOVLW  80
02F52:  XORWF  01,F
02F54:  BRA    3096
....................       }
....................    } else if(0 > x && fmod(y, 1) != 0) {
02F56:  BRA    3096
02F58:  MOVFF  5F3,61F
02F5C:  MOVFF  5F2,61E
02F60:  MOVFF  5F1,61D
02F64:  MOVFF  5F0,61C
02F68:  MOVLB  6
02F6A:  CLRF   x23
02F6C:  CLRF   x22
02F6E:  CLRF   x21
02F70:  CLRF   x20
02F72:  MOVLB  0
02F74:  CALL   16A8
02F78:  BNC   2FDA
02F7A:  MOVFF  5F7,5FB
02F7E:  MOVFF  5F6,5FA
02F82:  MOVFF  5F5,5F9
02F86:  MOVFF  5F4,5F8
02F8A:  MOVLB  5
02F8C:  CLRF   xFF
02F8E:  CLRF   xFE
02F90:  CLRF   xFD
02F92:  MOVLW  7F
02F94:  MOVWF  xFC
02F96:  MOVLB  0
02F98:  CALL   2498
02F9C:  MOVFF  03,5FB
02FA0:  MOVFF  02,5FA
02FA4:  MOVFF  01,5F9
02FA8:  MOVFF  00,5F8
02FAC:  MOVFF  03,61F
02FB0:  MOVFF  02,61E
02FB4:  MOVFF  01,61D
02FB8:  MOVFF  00,61C
02FBC:  MOVLB  6
02FBE:  CLRF   x23
02FC0:  CLRF   x22
02FC2:  CLRF   x21
02FC4:  CLRF   x20
02FC6:  MOVLB  0
02FC8:  CALL   16A8
02FCC:  BZ    2FDA
....................       return 0;
02FCE:  CLRF   00
02FD0:  CLRF   01
02FD2:  CLRF   02
02FD4:  CLRF   03
02FD6:  BRA    3096
....................    } else {
02FD8:  BRA    3096
....................       if(x != 0 || 0 >= y) {
02FDA:  MOVFF  5F3,61F
02FDE:  MOVFF  5F2,61E
02FE2:  MOVFF  5F1,61D
02FE6:  MOVFF  5F0,61C
02FEA:  MOVLB  6
02FEC:  CLRF   x23
02FEE:  CLRF   x22
02FF0:  CLRF   x21
02FF2:  CLRF   x20
02FF4:  MOVLB  0
02FF6:  CALL   16A8
02FFA:  BNZ   3020
02FFC:  MOVFF  5F7,61F
03000:  MOVFF  5F6,61E
03004:  MOVFF  5F5,61D
03008:  MOVFF  5F4,61C
0300C:  MOVLB  6
0300E:  CLRF   x23
03010:  CLRF   x22
03012:  CLRF   x21
03014:  CLRF   x20
03016:  MOVLB  0
03018:  CALL   16A8
0301C:  BC    3020
0301E:  BNZ   308E
....................          return (exp(log(x) * y));
03020:  MOVFF  5F3,5FF
03024:  MOVFF  5F2,5FE
03028:  MOVFF  5F1,5FD
0302C:  MOVFF  5F0,5FC
03030:  CALL   25FE
03034:  MOVFF  03,5FB
03038:  MOVFF  02,5FA
0303C:  MOVFF  01,5F9
03040:  MOVFF  00,5F8
03044:  MOVFF  03,61F
03048:  MOVFF  02,61E
0304C:  MOVFF  01,61D
03050:  MOVFF  00,61C
03054:  MOVFF  5F7,623
03058:  MOVFF  5F6,622
0305C:  MOVFF  5F5,621
03060:  MOVFF  5F4,620
03064:  CALL   133A
03068:  MOVFF  03,5FB
0306C:  MOVFF  02,5FA
03070:  MOVFF  01,5F9
03074:  MOVFF  00,5F8
03078:  MOVFF  03,5FF
0307C:  MOVFF  02,5FE
03080:  MOVFF  01,5FD
03084:  MOVFF  00,5FC
03088:  RCALL  298C
0308A:  BRA    3096
....................       } else return 0;
0308C:  BRA    3096
0308E:  CLRF   00
03090:  CLRF   01
03092:  CLRF   02
03094:  CLRF   03
....................    }
03096:  RETURN 0
.................... }
.................... //Overloaded functions for pow() for PCD
.................... // Overloaded function for pow() data type - Float48
.................... #if defined(__PCD__)
.................... float48 pow(float48 x,float48 y)
.................... {
....................    if(0 > x && fmod(y, 1) == 0) {
....................       if(fmod(y, 2) == 0) {
....................          return (exp(log(-x) * y));
....................       } else {
....................          return (-exp(log(-x) * y));
....................       }
....................    } else if(0 > x && fmod(y, 1) != 0) {
....................       return 0;
....................    } else {
....................       if(x != 0 || 0 >= y) {
....................          return (exp(log(x) * y));
....................       } else return 0;
....................    }
.................... }
.................... 
.................... // Overloaded function pow() for data type - Float64
.................... float64 pow(float64 x,float64 y)
.................... {
....................    if(0 > x && fmod(y, 1) == 0) {
....................       if(fmod(y, 2) == 0) {
....................          return (exp(log(-x) * y));
....................       } else {
....................          return (-exp(log(-x) * y));
....................       }
....................    } else if(0 > x && fmod(y, 1) != 0) {
....................       return 0;
....................    } else {
....................       if(x != 0 || 0 >= y) {
....................          return (exp(log(x) * y));
....................       } else return 0;
....................    }
.................... }
.................... #endif
.................... 
.................... ////////////////////////////////////////////////////////////////////////////
.................... //   float sqrt(float x)
.................... ////////////////////////////////////////////////////////////////////////////
.................... // Description : returns the square root of x
.................... // Date : N/A
.................... //
.................... float32 sqrt(float32 x)
.................... {
....................    float32 y, res;
....................    #if defined(__PCD__)
....................    unsigned int16 data1,data2;
....................    #endif
....................    #if !defined(__PCD__)
....................    unsigned int8 *p;
....................    #endif
.................... 
....................    #ifdef _ERRNO
....................    if(x < 0)
....................    {
....................       errno=EDOM;
....................    }
....................    #endif
.................... 
....................    if( x<=0.0)
....................       return(0.0);
.................... 
....................    y=x;
....................    
....................    #if !defined(__PCD__)
....................     p=&y;
....................    (*p)=(unsigned int8)((((unsigned int16)(*p)) + 127) >> 1);
....................    #endif
....................    
....................    #if defined(__PCD__)
....................     data1 = *(((unsigned int8 *)(&y))+3);
....................     data2 = *(((unsigned int8 *)(&y))+2);
....................     rotate_left(&data1,1);    
....................     if(bit_test(data2,7))    
....................        bit_set(data1,0);    
....................     data1 = ((data1+127) >>1);
....................     bit_clear(data2,7);
....................     if(bit_test(data1,0))
....................        bit_set(data2,7);
....................     data1 = data1 >>1;
....................     *(((unsigned int8 *)(&y))+3) = data1;
....................     *(((unsigned int8 *)(&y))+2) = data2;
....................     
....................   #endif
.................... 
....................    do {
....................       res=y;
....................       y+=(x/y);
.................... 
....................       #if !defined(__PCD__)
....................      (*p)--;
....................    #endif
....................    
....................    #if defined(__PCD__)
....................     data1 = *(((unsigned int8 *)(&y))+3);
....................     data2 = *(((unsigned int8 *)(&y))+2);
....................     rotate_left(&data1,1);
....................     if(bit_test(data2,7))
....................        bit_set(data1,0);    
....................     data1--;
....................     bit_clear(data2,7);
....................     if(bit_test(data1,0))
....................        bit_set(data2,7);
....................     data1 = data1 >>1;
....................     *(((unsigned int8 *)(&y))+3) = data1;
....................     *(((unsigned int8 *)(&y))+2) = data2;
....................     
....................   #endif
....................    } while(res != y);
.................... 
....................    return(res);
.................... }
.................... //Overloaded functions for sqrt() for PCD
.................... // Overloaded function sqrt() for data type - Float48
.................... #if defined(__PCD__)
.................... float48 sqrt(float48 x)
.................... {
....................    float48 y, res;
....................    unsigned int16 data1,data2;
....................    unsigned int8 *p;
.................... 
....................    #ifdef _ERRNO
....................    if(x < 0)
....................    {
....................       errno=EDOM;
....................    }
....................    #endif
.................... 
....................    if( x<=0.0)
....................       return(0.0);
.................... 
....................    y=x;
....................    
....................    #if !defined(__PCD__)
....................     p=&y;
....................    (*p)=(unsigned int8)((((unsigned int16)(*p)) + 127) >> 1);
....................    #endif
....................    
....................    #if defined(__PCD__)
....................     p = (((unsigned int8 *)(&y))+5);
....................     data1 = *(((unsigned int8 *)(&y))+5);
....................     data2 = *(((unsigned int8 *)(&y))+4);
....................     rotate_left(&data1,1);
....................     if(bit_test(data2,7))
....................        bit_set(data1,0);    
....................     data1 = ((data1+127) >>1);
....................     bit_clear(data2,7);
....................     if(bit_test(data1,0))
....................        bit_set(data2,7);
....................     data1 = data1 >>1;
....................     *(((unsigned int8 *)(&y))+5) = data1;
....................     *(((unsigned int8 *)(&y))+4) = data2;
....................     
....................   #endif
.................... 
....................    do {
....................       res=y;
....................       y+=(x/y);
.................... 
....................       #if !defined(__PCD__)
....................      (*p)--;
....................    #endif
....................    
....................     data1 = *(((unsigned int8 *)(&y))+5);
....................     data2 = *(((unsigned int8 *)(&y))+4);
....................     rotate_left(&data1,1);
....................     if(bit_test(data2,7))
....................        bit_set(data1,0);    
....................     data1--;
....................     bit_clear(data2,7);
....................     if(bit_test(data1,0))
....................        bit_set(data2,7);
....................     data1 = data1 >>1;
....................     *(((unsigned int8 *)(&y))+5) = data1;
....................     *(((unsigned int8 *)(&y))+4) = data2;
....................     
....................    } while(res != y);
.................... 
....................    return(res);
.................... }
.................... 
.................... // Overloaded function sqrt() for data type - Float64
.................... float64 sqrt(float64 x)
.................... {
....................    float64 y, res;
....................    unsigned int16 *p;
....................    unsigned int16 temp1,temp2;
.................... 
....................    #ifdef _ERRNO
....................    if(x < 0)
....................    {
....................       errno=EDOM;
....................    }
....................    #endif
.................... 
....................    if( x<=0.0)
....................       return(0.0);
.................... 
....................    y=x;
....................    p= (((unsigned int16 *)(&y))+3);
....................    temp1 = *p;
....................    temp2 = *p;
....................    bit_clear(temp1,15);
....................    temp1 = (temp1>>4)+1023;
....................    temp1 = temp1 >> 1;
....................    temp1 = (temp1<<4) & 0xFFF0;
....................    if(bit_test(temp2,15))
....................       bit_set(temp1,15);
....................    temp2 = temp2 & 0x000F;
....................    temp1 ^= temp2;
....................    
....................    (*p) = temp1;
....................    
....................    do {
....................       res=y;
....................       y+=(x/y);
....................      temp1 = *p;
....................      temp2 = *p;
....................      bit_clear(temp1,15);
....................      temp1 = (temp1>>4);
....................      temp1--;
....................      temp1 = (temp1<<4) & 0xFFF0;
....................      if(bit_test(temp2,15))
....................         bit_set(temp1,15);
....................      temp2 = temp2 & 0x000F;
....................      temp1 ^= temp2;
....................      (*p) = temp1;
.................... 
....................    } while(res != y);
.................... 
....................    return(res);
.................... }
.................... #endif
.................... 
.................... ////////////////////////////// Trig Functions //////////////////////////////
.................... #ifdef PI_DIV_BY_TWO_INV
.................... #undef PI_DIV_BY_TWO_INV
.................... #endif
.................... #define PI_DIV_BY_TWO_INV 0.63661977236758134
.................... #ifdef PI_DIV_BY_TWO
.................... #undef PI_DIV_BY_TWO
.................... #endif
.................... #define PI_DIV_BY_TWO   1.5707963267948966
.................... #ifdef TWOBYPI
.................... #undef TWOBYPI
.................... #endif
.................... #define TWOBYPI          0.6366197723675813
.................... 
.................... ////////////////////////////////////////////////////////////////////////////
.................... //   float cos(float x)
.................... ////////////////////////////////////////////////////////////////////////////
.................... // Description : returns the cosine value of the angle x, which is in radian
.................... // Date : 9/20/2001
.................... //
.................... float32 cos(float32 x)
.................... {
....................    float32 y, t, t2 = 1.0;
....................    unsigned int8 quad, i;
....................    float32 frac;
....................    float32 p[5] = {                    //by the series definition for cosine
....................       -0.49999999456337096,            // sum ( ( (-1)^n * x^2n )/(2n)! )
....................        0.04166663896921267,
....................       -0.00138883894522527,
....................        0.00002476138231734,
....................       -0.00000026070414770
....................       //-0.00000000001147,
....................       // 0.00000000000005
....................    };
.................... 
....................    if (x < 0) x = -x;                  // absolute value of input
.................... 
....................    quad = (unsigned int8)(x * PI_DIV_BY_TWO_INV);    // quadrant
....................    frac = (x * PI_DIV_BY_TWO_INV) - quad;  // fractional part of input
....................    quad = quad % 4;                    // quadrant (0 to 3)
.................... 
....................    if (quad == 0 || quad == 2)
....................       t = frac * PI_DIV_BY_TWO;
....................    else if (quad == 1)
....................       t = (1-frac) * PI_DIV_BY_TWO;
....................    else // should be 3
....................       t = (frac-1) * PI_DIV_BY_TWO;
.................... 
....................    y = 1.0;
....................    t = t * t;
....................    for (i = 0; i <= 4; i++)
....................    {
....................       t2 = t2 * t;
....................       y = y + p[i] * t2;
....................    }
.................... 
....................    if (quad == 2 || quad == 1)
....................       y = -y;  // correct sign
.................... 
....................    return (y);
.................... }
.................... 
.................... 
.................... //Overloaded functions for cos() for PCD
.................... // Overloaded function cos() for data type - Float48
.................... #if defined(__PCD__)
.................... float48 cos(float48 x)
.................... {
....................    float48 y, t, t2 = 1.0;
....................    unsigned int8 quad, i;
....................    float48 frac;
....................    float48 p[6] = {                    //by the series definition for cosine
....................       -0.5,                            // sum ( ( (-1)^n * x^2n )/(2n)! )
....................        0.04166666666667,
....................       -0.00138888888889,
....................        0.00002480158730,
....................       -0.00000027557319,
....................        0.00000000208767
....................    };
.................... 
....................    if (x < 0) x = -x;                  // absolute value of input
.................... 
....................    quad = (unsigned int8)(x * PI_DIV_BY_TWO_INV);    // quadrant
....................    frac = (x * PI_DIV_BY_TWO_INV) - quad;  // fractional part of input
....................    quad = quad % 4;                    // quadrant (0 to 3)
.................... 
....................    if (quad == 0 || quad == 2)
....................       t = frac * PI_DIV_BY_TWO;
....................    else if (quad == 1)
....................       t = (1-frac) * PI_DIV_BY_TWO;
....................    else // should be 3
....................       t = (frac-1) * PI_DIV_BY_TWO;
.................... 
....................    y = 0.999999999781;
....................    t = t * t;
....................    for (i = 0; i <= 5; i++)
....................    {
....................       t2 = t2 * t;
....................       y = y + p[i] * t2;
....................    }
.................... 
....................    if (quad == 2 || quad == 1)
....................       y = -y;  // correct sign
.................... 
....................    return (y);
.................... }
.................... 
.................... // Overloaded function cos() for data type - Float64
.................... float64 cos(float64 x)
.................... {
....................    float64 y, t, t2 = 1.0;
....................    unsigned int8 quad, i;
....................    float64 frac;
....................    float64 p_64[9] = {               //by the series definition for cosine
....................      -0.49999999999998740,           // sum ( ( (-1)^n * x^2n )/(2n)! )             
....................       0.04166666666656518,
....................      -0.00138888888851691,
....................       0.00002480158658490,
....................      -0.00000027557239796,
....................       0.00000000208715031,
....................      -0.00000000001126577,
....................       0.00000000000000427,
....................       0.00000000000000372};
.................... 
....................    if (x < 0) x = -x;                  // absolute value of input
.................... 
....................    quad = (unsigned int8)(x * PI_DIV_BY_TWO_INV);    // quadrant
....................    frac = (x * PI_DIV_BY_TWO_INV) - quad;  // fractional part of input
....................    quad = quad % 4;                    // quadrant (0 to 3)
.................... 
....................    if (quad == 0 || quad == 2)
....................       t = frac * PI_DIV_BY_TWO;
....................    else if (quad == 1)
....................       t = (1-frac) * PI_DIV_BY_TWO;
....................    else // should be 3
....................       t = (frac-1) * PI_DIV_BY_TWO;
.................... 
....................    y = 1.0;
....................    t = t * t;
....................    for (i = 0; i <= 8; i++)
....................    {
....................       t2 = t2 * t;
....................       y = y + p_64[i] * t2;
....................    }
.................... 
....................    if (quad == 2 || quad == 1)
....................       y = -y;  // correct sign
.................... 
....................    return (y);
.................... }
.................... 
.................... #endif
.................... 
.................... ////////////////////////////////////////////////////////////////////////////
.................... //   float sin(float x)
.................... ////////////////////////////////////////////////////////////////////////////
.................... // Description : returns the sine value of the angle x, which is in radian
.................... // Date : 9/20/2001
.................... //
.................... float32 sin(float32 x)
.................... {
....................    return cos(x - PI_DIV_BY_TWO);
.................... }
.................... 
.................... //Overloaded functions for sin() for PCD
.................... // Overloaded function sin() for data type - Float48
.................... #if defined(__PCD__)
.................... float48 sin(float48 x)
.................... {
....................    return cos(x - PI_DIV_BY_TWO);
.................... }
.................... 
.................... // Overloaded function sin() for data type - Float48
.................... float64 sin(float64 x)
.................... {
....................    return cos(x - PI_DIV_BY_TWO);
.................... }
.................... #endif
.................... 
.................... ////////////////////////////////////////////////////////////////////////////
.................... //   float tan(float x)
.................... ////////////////////////////////////////////////////////////////////////////
.................... // Description : returns the tangent value of the angle x, which is in radian
.................... // Date : 9/20/2001
.................... //
.................... float32 tan(float32 x)
.................... {
....................    float32 c, s;
.................... 
....................    c = cos(x);
....................    if (c == 0.0)
....................       return (1.0e+36);
.................... 
....................    s = sin(x);
....................    return(s/c);
.................... }
.................... //Overloaded functions for tan() for PCD
.................... // Overloaded function tan() for data type - Float48
.................... #if defined(__PCD__)
.................... float48 tan(float48 x)
.................... {
....................    float48 c, s;
.................... 
....................    c = cos(x);
....................    if (c == 0.0)
....................       return (1.0e+36);
.................... 
....................    s = sin(x);
....................    return(s/c);
.................... }
.................... 
.................... // Overloaded function tan() for data type - Float48
.................... float64 tan(float64 x)
.................... {
....................    float64 c, s;
.................... 
....................    c = cos(x);
....................    if (c == 0.0)
....................       return (1.0e+36);
.................... 
....................    s = sin(x);
....................    return(s/c);
.................... }
.................... #endif
.................... 
.................... float32 const pas[3] = {0.49559947, -4.6145309, 5.6036290};
.................... float32 const qas[3] = {1.0000000,  -5.5484666, 5.6036290};
.................... 
.................... float32 ASIN_COS(float32 x, unsigned int8 n)
.................... {
....................    float32 y, res, r, y2;
....................    int1 s;
....................    #ifdef _ERRNO
....................    if(x <-1 || x > 1)
....................    {
....................       errno=EDOM;
....................    }
....................    #endif
....................    s = 0;
....................    y = x;
.................... 
....................    if (x < 0)
....................    {
....................       s = 1;
....................       y = -y;
....................    }
.................... 
....................    if (y > 0.5)
....................    {
....................       y = sqrt((1.0 - y)*0.5);
....................       n += 2;
....................    }
.................... 
....................    y2=y*y;
.................... 
....................    res = pas[0]*y2 + pas[1];
....................    res = res*y2 + pas[2];
.................... 
....................    r = qas[0]*y2 + qas[1];
....................    r = r*y2 + qas[2];
.................... 
....................    res = y*res/r;
.................... 
....................    if (n & 2)     // |x| > 0.5
....................       res = PI_DIV_BY_TWO - 2.0*res;
....................    if (s)
....................       res = -res;
....................    if (n & 1)           // take arccos
....................       res = PI_DIV_BY_TWO - res;
.................... 
....................    return(res);
.................... }
.................... 
.................... 
.................... //Overloaded functions for ASIN_COS() for PCD
.................... // Overloaded function ASIN_COS() for data type - Float48
.................... #if defined(__PCD__)
.................... float48 ASIN_COS(float48 x, unsigned int8 n)
.................... {
....................    float48 y, res, r, y2;
....................    int1 s;
....................    #ifdef _ERRNO
....................    if(x <-1 || x > 1)
....................    {
....................       errno=EDOM;
....................    }
....................    #endif
....................    s = 0;
....................    y = x;
.................... 
....................    if (x < 0)
....................    {
....................       s = 1;
....................       y = -y;
....................    }
.................... 
....................    if (y > 0.5)
....................    {
....................       y = sqrt((1.0 - y)*0.5);
....................       n += 2;
....................    }
.................... 
....................    y2=y*y;
.................... 
....................    res = pas[0]*y2 + pas[1];
....................    res = res*y2 + pas[2];
.................... 
....................    r = qas[0]*y2 + qas[1];
....................    r = r*y2 + qas[2];
.................... 
....................    res = y*res/r;
.................... 
....................    if (n & 2)     // |x| > 0.5
....................       res = PI_DIV_BY_TWO - 2.0*res;
....................    if (s)
....................       res = -res;
....................    if (n & 1)           // take arccos
....................       res = PI_DIV_BY_TWO - res;
.................... 
....................    return(res);
.................... }
.................... 
.................... // Overloaded function ASIN_COS() for data type - Float64
.................... double pas_64[5]={1.000000000000000,-2.069938587724477,1.421444580548907,
....................                  -0.360690137621842,0.024929451660228};
.................... 
.................... double qas_64[5]={-2.236605254391134,1.719212122946451,-0.524122954476133,
....................                    0.052808872045749,-0.000662536036570};
....................                    
.................... float64 ASIN_COS(float64 x, unsigned int8 n)
.................... {
....................    float64 y, res, r, y2;
....................    int1 s;
....................    #ifdef _ERRNO
....................    if(x <-1 || x > 1)
....................    {
....................       errno=EDOM;
....................    }
....................    #endif
....................    s = 0;
....................    y = x;
.................... 
....................    if (x < 0)
....................    {
....................       s = 1;
....................       y = -y;
....................    }
.................... 
....................    if (y > 0.5)
....................    {
....................       y = sqrt((1.0 - y)*0.5);
....................       n += 2;
....................    }
.................... 
....................    y2=y*y;
.................... 
....................    res = pas_64[4]*y2 + pas_64[3];
....................    res = res*y2 + pas_64[2];
....................    res = res*y2 + pas_64[1];
....................    res = res*y2 + pas_64[0];
.................... 
....................    r = qas_64[4]*y2 + qas_64[3];
....................    r = r*y2 + qas_64[2];
....................    r = r*y2 + qas_64[1];
....................    r = r*y2 + qas_64[0];
....................    r = r*y2 + 1.0;
.................... 
....................    res = y*res/r;
.................... 
....................    if (n & 2)     // |x| > 0.5
....................       res = PI_DIV_BY_TWO - 2.0*res;
....................    if (s)
....................       res = -res;
....................    if (n & 1)           // take arccos
....................       res = PI_DIV_BY_TWO - res;
.................... 
....................    return(res);
.................... }
.................... #endif
.................... 
.................... ////////////////////////////////////////////////////////////////////////////
.................... //   float asin(float x)
.................... ////////////////////////////////////////////////////////////////////////////
.................... // Description : returns the arcsine value of the value x.
.................... // Date : N/A
.................... //
.................... float32 asin(float32 x)
.................... {
....................    float32 r;
.................... 
....................    r = ASIN_COS(x, 0);
....................    return(r);
.................... }
.................... //Overloaded functions for asin() for PCD
.................... // Overloaded function asin() for data type - Float48
.................... #if defined(__PCD__)
.................... float48 asin(float48 x)
.................... {
....................    float48 r;
.................... 
....................    r = ASIN_COS(x, 0);
....................    return(r);
.................... }
.................... 
.................... // Overloaded function asin() for data type - Float64
.................... float64 asin(float64 x)
.................... {
....................    float64 r;
.................... 
....................    r = ASIN_COS(x, 0);
....................    return(r);
.................... }
.................... #endif
.................... 
.................... ////////////////////////////////////////////////////////////////////////////
.................... //   float acos(float x)
.................... ////////////////////////////////////////////////////////////////////////////
.................... // Description : returns the arccosine value of the value x.
.................... // Date : N/A
.................... //
.................... float32 acos(float32 x)
.................... {
....................    float32 r;
.................... 
....................    r = ASIN_COS(x, 1);
....................    return(r);
.................... }
.................... //Overloaded functions for acos() for PCD
.................... // Overloaded function acos() for data type - Float48
.................... #if defined(__PCD__)
.................... float48 acos(float48 x)
.................... {
....................    float48 r;
.................... 
....................    r = ASIN_COS(x, 1);
....................    return(r);
.................... }
.................... 
.................... // Overloaded function acos() for data type - Float64
.................... float64 acos(float64 x)
.................... {
....................    float64 r;
.................... 
....................    r = ASIN_COS(x, 1);
....................    return(r);
.................... }
.................... #endif
.................... 
.................... float32 const pat[4] = {0.17630401, 5.6710795, 22.376096, 19.818457};
.................... float32 const qat[4] = {1.0000000,  11.368190, 28.982246, 19.818457};
.................... 
.................... ////////////////////////////////////////////////////////////////////////////
.................... //   float atan(float x)
.................... ////////////////////////////////////////////////////////////////////////////
.................... // Description : returns the arctangent value of the value x.
.................... // Date : N/A
.................... //
.................... float32 atan(float32 x)
.................... {
....................    float32 y, res, r;
....................    int1 s, flag;
.................... 
....................    s = 0;
*
01880:  MOVLB  6
01882:  BCF    x0E.0
....................    flag = 0;
01884:  BCF    x0E.1
....................    y = x;
01886:  MOVFF  601,605
0188A:  MOVFF  600,604
0188E:  MOVFF  5FF,603
01892:  MOVFF  5FE,602
.................... 
....................    if (x < 0)
01896:  MOVFF  601,61F
0189A:  MOVFF  600,61E
0189E:  MOVFF  5FF,61D
018A2:  MOVFF  5FE,61C
018A6:  CLRF   x23
018A8:  CLRF   x22
018AA:  CLRF   x21
018AC:  CLRF   x20
018AE:  MOVLB  0
018B0:  RCALL  16A8
018B2:  BNC   18C0
....................    {
....................       s = 1;
018B4:  MOVLB  6
018B6:  BSF    x0E.0
....................       y = -y;
018B8:  MOVF   x03,W
018BA:  XORLW  80
018BC:  MOVWF  x03
018BE:  MOVLB  0
....................    }
.................... 
....................    if (y > 1.0)
018C0:  MOVLB  6
018C2:  CLRF   x1F
018C4:  CLRF   x1E
018C6:  CLRF   x1D
018C8:  MOVLW  7F
018CA:  MOVWF  x1C
018CC:  MOVFF  605,623
018D0:  MOVFF  604,622
018D4:  MOVFF  603,621
018D8:  MOVFF  602,620
018DC:  MOVLB  0
018DE:  RCALL  16A8
018E0:  BNC   1918
....................    {
....................       y = 1.0/y;
018E2:  MOVLB  6
018E4:  CLRF   x18
018E6:  CLRF   x17
018E8:  CLRF   x16
018EA:  MOVLW  7F
018EC:  MOVWF  x15
018EE:  MOVFF  605,61C
018F2:  MOVFF  604,61B
018F6:  MOVFF  603,61A
018FA:  MOVFF  602,619
018FE:  MOVLB  0
01900:  RCALL  1722
01902:  MOVFF  03,605
01906:  MOVFF  02,604
0190A:  MOVFF  01,603
0190E:  MOVFF  00,602
....................       flag = 1;
01912:  MOVLB  6
01914:  BSF    x0E.1
01916:  MOVLB  0
....................    }
.................... 
....................    res = pat[0]*y*y + pat[1];
01918:  MOVLW  0A
0191A:  MOVLB  6
0191C:  MOVWF  x1F
0191E:  MOVLW  89
01920:  MOVWF  x1E
01922:  MOVLW  34
01924:  MOVWF  x1D
01926:  MOVLW  7C
01928:  MOVWF  x1C
0192A:  MOVFF  605,623
0192E:  MOVFF  604,622
01932:  MOVFF  603,621
01936:  MOVFF  602,620
0193A:  MOVLB  0
0193C:  RCALL  133A
0193E:  MOVFF  03,612
01942:  MOVFF  02,611
01946:  MOVFF  01,610
0194A:  MOVFF  00,60F
0194E:  MOVFF  03,61F
01952:  MOVFF  02,61E
01956:  MOVFF  01,61D
0195A:  MOVFF  00,61C
0195E:  MOVFF  605,623
01962:  MOVFF  604,622
01966:  MOVFF  603,621
0196A:  MOVFF  602,620
0196E:  RCALL  133A
01970:  MOVFF  03,612
01974:  MOVFF  02,611
01978:  MOVFF  01,610
0197C:  MOVFF  00,60F
01980:  BCF    FD8.1
01982:  MOVFF  03,623
01986:  MOVFF  02,622
0198A:  MOVFF  01,621
0198E:  MOVFF  00,620
01992:  MOVLW  7C
01994:  MOVLB  6
01996:  MOVWF  x27
01998:  MOVLW  79
0199A:  MOVWF  x26
0199C:  MOVLW  35
0199E:  MOVWF  x25
019A0:  MOVLW  81
019A2:  MOVWF  x24
019A4:  MOVLB  0
019A6:  RCALL  1430
019A8:  MOVFF  03,609
019AC:  MOVFF  02,608
019B0:  MOVFF  01,607
019B4:  MOVFF  00,606
....................    res = res*y*y + pat[2];
019B8:  MOVFF  609,61F
019BC:  MOVFF  608,61E
019C0:  MOVFF  607,61D
019C4:  MOVFF  606,61C
019C8:  MOVFF  605,623
019CC:  MOVFF  604,622
019D0:  MOVFF  603,621
019D4:  MOVFF  602,620
019D8:  RCALL  133A
019DA:  MOVFF  03,612
019DE:  MOVFF  02,611
019E2:  MOVFF  01,610
019E6:  MOVFF  00,60F
019EA:  MOVFF  03,61F
019EE:  MOVFF  02,61E
019F2:  MOVFF  01,61D
019F6:  MOVFF  00,61C
019FA:  MOVFF  605,623
019FE:  MOVFF  604,622
01A02:  MOVFF  603,621
01A06:  MOVFF  602,620
01A0A:  RCALL  133A
01A0C:  MOVFF  03,612
01A10:  MOVFF  02,611
01A14:  MOVFF  01,610
01A18:  MOVFF  00,60F
01A1C:  BCF    FD8.1
01A1E:  MOVFF  03,623
01A22:  MOVFF  02,622
01A26:  MOVFF  01,621
01A2A:  MOVFF  00,620
01A2E:  MOVLW  3F
01A30:  MOVLB  6
01A32:  MOVWF  x27
01A34:  MOVLW  02
01A36:  MOVWF  x26
01A38:  MOVLW  33
01A3A:  MOVWF  x25
01A3C:  MOVLW  83
01A3E:  MOVWF  x24
01A40:  MOVLB  0
01A42:  RCALL  1430
01A44:  MOVFF  03,609
01A48:  MOVFF  02,608
01A4C:  MOVFF  01,607
01A50:  MOVFF  00,606
....................    res = res*y*y + pat[3];
01A54:  MOVFF  609,61F
01A58:  MOVFF  608,61E
01A5C:  MOVFF  607,61D
01A60:  MOVFF  606,61C
01A64:  MOVFF  605,623
01A68:  MOVFF  604,622
01A6C:  MOVFF  603,621
01A70:  MOVFF  602,620
01A74:  RCALL  133A
01A76:  MOVFF  03,612
01A7A:  MOVFF  02,611
01A7E:  MOVFF  01,610
01A82:  MOVFF  00,60F
01A86:  MOVFF  03,61F
01A8A:  MOVFF  02,61E
01A8E:  MOVFF  01,61D
01A92:  MOVFF  00,61C
01A96:  MOVFF  605,623
01A9A:  MOVFF  604,622
01A9E:  MOVFF  603,621
01AA2:  MOVFF  602,620
01AA6:  RCALL  133A
01AA8:  MOVFF  03,612
01AAC:  MOVFF  02,611
01AB0:  MOVFF  01,610
01AB4:  MOVFF  00,60F
01AB8:  BCF    FD8.1
01ABA:  MOVFF  03,623
01ABE:  MOVFF  02,622
01AC2:  MOVFF  01,621
01AC6:  MOVFF  00,620
01ACA:  MOVLW  33
01ACC:  MOVLB  6
01ACE:  MOVWF  x27
01AD0:  MOVLW  8C
01AD2:  MOVWF  x26
01AD4:  MOVLW  1E
01AD6:  MOVWF  x25
01AD8:  MOVLW  83
01ADA:  MOVWF  x24
01ADC:  MOVLB  0
01ADE:  RCALL  1430
01AE0:  MOVFF  03,609
01AE4:  MOVFF  02,608
01AE8:  MOVFF  01,607
01AEC:  MOVFF  00,606
.................... 
....................    r = qat[0]*y*y + qat[1];
01AF0:  MOVLB  6
01AF2:  CLRF   x1F
01AF4:  CLRF   x1E
01AF6:  CLRF   x1D
01AF8:  MOVLW  7F
01AFA:  MOVWF  x1C
01AFC:  MOVFF  605,623
01B00:  MOVFF  604,622
01B04:  MOVFF  603,621
01B08:  MOVFF  602,620
01B0C:  MOVLB  0
01B0E:  RCALL  133A
01B10:  MOVFF  03,612
01B14:  MOVFF  02,611
01B18:  MOVFF  01,610
01B1C:  MOVFF  00,60F
01B20:  MOVFF  03,61F
01B24:  MOVFF  02,61E
01B28:  MOVFF  01,61D
01B2C:  MOVFF  00,61C
01B30:  MOVFF  605,623
01B34:  MOVFF  604,622
01B38:  MOVFF  603,621
01B3C:  MOVFF  602,620
01B40:  CALL   133A
01B44:  MOVFF  03,612
01B48:  MOVFF  02,611
01B4C:  MOVFF  01,610
01B50:  MOVFF  00,60F
01B54:  BCF    FD8.1
01B56:  MOVFF  03,623
01B5A:  MOVFF  02,622
01B5E:  MOVFF  01,621
01B62:  MOVFF  00,620
01B66:  MOVLW  1B
01B68:  MOVLB  6
01B6A:  MOVWF  x27
01B6C:  MOVLW  E4
01B6E:  MOVWF  x26
01B70:  MOVLW  35
01B72:  MOVWF  x25
01B74:  MOVLW  82
01B76:  MOVWF  x24
01B78:  MOVLB  0
01B7A:  RCALL  1430
01B7C:  MOVFF  03,60D
01B80:  MOVFF  02,60C
01B84:  MOVFF  01,60B
01B88:  MOVFF  00,60A
....................    r = r*y*y + qat[2];
01B8C:  MOVFF  60D,61F
01B90:  MOVFF  60C,61E
01B94:  MOVFF  60B,61D
01B98:  MOVFF  60A,61C
01B9C:  MOVFF  605,623
01BA0:  MOVFF  604,622
01BA4:  MOVFF  603,621
01BA8:  MOVFF  602,620
01BAC:  CALL   133A
01BB0:  MOVFF  03,612
01BB4:  MOVFF  02,611
01BB8:  MOVFF  01,610
01BBC:  MOVFF  00,60F
01BC0:  MOVFF  03,61F
01BC4:  MOVFF  02,61E
01BC8:  MOVFF  01,61D
01BCC:  MOVFF  00,61C
01BD0:  MOVFF  605,623
01BD4:  MOVFF  604,622
01BD8:  MOVFF  603,621
01BDC:  MOVFF  602,620
01BE0:  CALL   133A
01BE4:  MOVFF  03,612
01BE8:  MOVFF  02,611
01BEC:  MOVFF  01,610
01BF0:  MOVFF  00,60F
01BF4:  BCF    FD8.1
01BF6:  MOVFF  03,623
01BFA:  MOVFF  02,622
01BFE:  MOVFF  01,621
01C02:  MOVFF  00,620
01C06:  MOVLW  A4
01C08:  MOVLB  6
01C0A:  MOVWF  x27
01C0C:  MOVLW  DB
01C0E:  MOVWF  x26
01C10:  MOVLW  67
01C12:  MOVWF  x25
01C14:  MOVLW  83
01C16:  MOVWF  x24
01C18:  MOVLB  0
01C1A:  RCALL  1430
01C1C:  MOVFF  03,60D
01C20:  MOVFF  02,60C
01C24:  MOVFF  01,60B
01C28:  MOVFF  00,60A
....................    r = r*y*y + qat[3];
01C2C:  MOVFF  60D,61F
01C30:  MOVFF  60C,61E
01C34:  MOVFF  60B,61D
01C38:  MOVFF  60A,61C
01C3C:  MOVFF  605,623
01C40:  MOVFF  604,622
01C44:  MOVFF  603,621
01C48:  MOVFF  602,620
01C4C:  CALL   133A
01C50:  MOVFF  03,612
01C54:  MOVFF  02,611
01C58:  MOVFF  01,610
01C5C:  MOVFF  00,60F
01C60:  MOVFF  03,61F
01C64:  MOVFF  02,61E
01C68:  MOVFF  01,61D
01C6C:  MOVFF  00,61C
01C70:  MOVFF  605,623
01C74:  MOVFF  604,622
01C78:  MOVFF  603,621
01C7C:  MOVFF  602,620
01C80:  CALL   133A
01C84:  MOVFF  03,612
01C88:  MOVFF  02,611
01C8C:  MOVFF  01,610
01C90:  MOVFF  00,60F
01C94:  BCF    FD8.1
01C96:  MOVFF  03,623
01C9A:  MOVFF  02,622
01C9E:  MOVFF  01,621
01CA2:  MOVFF  00,620
01CA6:  MOVLW  33
01CA8:  MOVLB  6
01CAA:  MOVWF  x27
01CAC:  MOVLW  8C
01CAE:  MOVWF  x26
01CB0:  MOVLW  1E
01CB2:  MOVWF  x25
01CB4:  MOVLW  83
01CB6:  MOVWF  x24
01CB8:  MOVLB  0
01CBA:  CALL   1430
01CBE:  MOVFF  03,60D
01CC2:  MOVFF  02,60C
01CC6:  MOVFF  01,60B
01CCA:  MOVFF  00,60A
.................... 
....................    res = y*res/r;
01CCE:  MOVFF  605,61F
01CD2:  MOVFF  604,61E
01CD6:  MOVFF  603,61D
01CDA:  MOVFF  602,61C
01CDE:  MOVFF  609,623
01CE2:  MOVFF  608,622
01CE6:  MOVFF  607,621
01CEA:  MOVFF  606,620
01CEE:  CALL   133A
01CF2:  MOVFF  03,612
01CF6:  MOVFF  02,611
01CFA:  MOVFF  01,610
01CFE:  MOVFF  00,60F
01D02:  MOVFF  03,618
01D06:  MOVFF  02,617
01D0A:  MOVFF  01,616
01D0E:  MOVFF  00,615
01D12:  MOVFF  60D,61C
01D16:  MOVFF  60C,61B
01D1A:  MOVFF  60B,61A
01D1E:  MOVFF  60A,619
01D22:  RCALL  1722
01D24:  MOVFF  03,609
01D28:  MOVFF  02,608
01D2C:  MOVFF  01,607
01D30:  MOVFF  00,606
.................... 
.................... 
....................    if (flag)                              // for |x| > 1
01D34:  MOVLB  6
01D36:  BTFSS  x0E.1
01D38:  BRA    1D74
....................       res = PI_DIV_BY_TWO - res;
01D3A:  BSF    FD8.1
01D3C:  MOVLW  DB
01D3E:  MOVWF  x23
01D40:  MOVLW  0F
01D42:  MOVWF  x22
01D44:  MOVLW  49
01D46:  MOVWF  x21
01D48:  MOVLW  7F
01D4A:  MOVWF  x20
01D4C:  MOVFF  609,627
01D50:  MOVFF  608,626
01D54:  MOVFF  607,625
01D58:  MOVFF  606,624
01D5C:  MOVLB  0
01D5E:  CALL   1430
01D62:  MOVFF  03,609
01D66:  MOVFF  02,608
01D6A:  MOVFF  01,607
01D6E:  MOVFF  00,606
01D72:  MOVLB  6
....................    if (s)
01D74:  BTFSS  x0E.0
01D76:  BRA    1D7E
....................       res = -res;
01D78:  MOVF   x07,W
01D7A:  XORLW  80
01D7C:  MOVWF  x07
.................... 
....................    return(res);
01D7E:  MOVFF  606,00
01D82:  MOVFF  607,01
01D86:  MOVFF  608,02
01D8A:  MOVFF  609,03
01D8E:  MOVLB  0
01D90:  RETURN 0
.................... }
.................... //Overloaded functions for atan() for PCD
.................... // Overloaded function atan() for data type - Float48
.................... #if defined(__PCD__)
.................... float48 atan(float48 x)
.................... {
....................    float48 y, res, r;
....................    int1 s, flag;
.................... 
....................    s = 0;
....................    flag = 0;
....................    y = x;
.................... 
....................    if (x < 0)
....................    {
....................       s = 1;
....................       y = -y;
....................    }
.................... 
....................    if (y > 1.0)
....................    {
....................       y = 1.0/y;
....................       flag = 1;
....................    }
.................... 
....................    res = pat[0]*y*y + pat[1];
....................    res = res*y*y + pat[2];
....................    res = res*y*y + pat[3];
.................... 
....................    r = qat[0]*y*y + qat[1];
....................    r = r*y*y + qat[2];
....................    r = r*y*y + qat[3];
.................... 
....................    res = y*res/r;
.................... 
.................... 
....................    if (flag)                              // for |x| > 1
....................       res = PI_DIV_BY_TWO - res;
....................    if (s)
....................       res = -res;
.................... 
....................    return(res);
.................... }
.................... 
.................... float64 pat_64[6]={0.999999999999999,2.249923645595566,1.771541617806449,
....................                    0.579678874003185,0.072162702162882,0.002281100141660};
.................... 
.................... float64 qat_64[6]={2.583256978928510,2.432627277466967,1.016760379885393,
....................                    0.182482977188688,0.011155377971690,0.000100013019160};
.................... // Overloaded function atan() for data type - Float64
.................... float64 atan(float64 x)
.................... {
....................    float64 y,y2, res, r;
....................    int1 s, flag;
.................... 
....................    s = 0;
....................    flag = 0;
....................    y = x;
.................... 
....................    if (x < 0)
....................    {
....................       s = 1;
....................       y = -y;
....................    }
.................... 
....................    if (y > 1.0)
....................    {
....................       y = 1.0/y;
....................       flag = 1;
....................    }
....................    y2 = y*y;
....................    res = pat_64[5]*y2 + pat_64[4];
....................    res = res*y2 + pat_64[3];
....................    res = res*y2 + pat_64[2];
....................    res = res*y2 + pat_64[1];
....................    res = res*y2 + pat_64[0];
.................... 
....................    r = qat_64[5]*y2 + qat_64[4];
....................    r = r*y2 + qat_64[3];
....................    r = r*y2 + qat_64[2];
....................    r = r*y2 + qat_64[1];
....................    r = r*y2 + qat_64[0];
....................    r = r*y2 + 1.0;
.................... 
....................    res = y*res/r;
.................... 
.................... 
....................    if (flag)                              // for |x| > 1
....................       res = PI_DIV_BY_TWO - res;
....................    if (s)
....................       res = -res;
.................... 
....................    return(res);
.................... }
.................... #endif
.................... 
.................... /////////////////////////////////////////////////////////////////////////////
.................... //   float atan2(float y, float x)
.................... /////////////////////////////////////////////////////////////////////////////
.................... // Description :computes the principal value of arc tangent of y/x, using the
.................... // signs of both the arguments to determine the quadrant of the return value
.................... // Returns : returns the arc tangent of y/x.
.................... // Date : N/A
.................... //
.................... 
.................... float32 atan2(float32 y,float32 x)
.................... {
....................    float32 z;
....................    int1 sign;
....................    unsigned int8 quad;
....................    sign=0;
01D92:  MOVLB  5
01D94:  BCF    xFC.0
....................    quad=0; //quadrant
01D96:  CLRF   xFD
....................    quad=((y<=0.0)?((x<=0.0)?3:4):((x<0.0)?2:1));
01D98:  MOVFF  5F3,61F
01D9C:  MOVFF  5F2,61E
01DA0:  MOVFF  5F1,61D
01DA4:  MOVFF  5F0,61C
01DA8:  MOVLB  6
01DAA:  CLRF   x23
01DAC:  CLRF   x22
01DAE:  CLRF   x21
01DB0:  CLRF   x20
01DB2:  MOVLB  0
01DB4:  RCALL  16A8
01DB6:  BC    1DBA
01DB8:  BNZ   1DE4
01DBA:  MOVFF  5F7,61F
01DBE:  MOVFF  5F6,61E
01DC2:  MOVFF  5F5,61D
01DC6:  MOVFF  5F4,61C
01DCA:  MOVLB  6
01DCC:  CLRF   x23
01DCE:  CLRF   x22
01DD0:  CLRF   x21
01DD2:  CLRF   x20
01DD4:  MOVLB  0
01DD6:  RCALL  16A8
01DD8:  BC    1DDC
01DDA:  BNZ   1DE0
01DDC:  MOVLW  03
01DDE:  BRA    1DE2
01DE0:  MOVLW  04
01DE2:  BRA    1E0A
01DE4:  MOVFF  5F7,61F
01DE8:  MOVFF  5F6,61E
01DEC:  MOVFF  5F5,61D
01DF0:  MOVFF  5F4,61C
01DF4:  MOVLB  6
01DF6:  CLRF   x23
01DF8:  CLRF   x22
01DFA:  CLRF   x21
01DFC:  CLRF   x20
01DFE:  MOVLB  0
01E00:  RCALL  16A8
01E02:  BNC   1E08
01E04:  MOVLW  02
01E06:  BRA    1E0A
01E08:  MOVLW  01
01E0A:  MOVLB  5
01E0C:  MOVWF  xFD
....................    if(y<0.0)
01E0E:  MOVFF  5F3,61F
01E12:  MOVFF  5F2,61E
01E16:  MOVFF  5F1,61D
01E1A:  MOVFF  5F0,61C
01E1E:  MOVLB  6
01E20:  CLRF   x23
01E22:  CLRF   x22
01E24:  CLRF   x21
01E26:  CLRF   x20
01E28:  MOVLB  0
01E2A:  RCALL  16A8
01E2C:  BNC   1E3A
....................    {
....................       sign=1;
01E2E:  MOVLB  5
01E30:  BSF    xFC.0
....................       y=-y;
01E32:  MOVF   xF1,W
01E34:  XORLW  80
01E36:  MOVWF  xF1
01E38:  MOVLB  0
....................    }
....................    if(x<0.0)
01E3A:  MOVFF  5F7,61F
01E3E:  MOVFF  5F6,61E
01E42:  MOVFF  5F5,61D
01E46:  MOVFF  5F4,61C
01E4A:  MOVLB  6
01E4C:  CLRF   x23
01E4E:  CLRF   x22
01E50:  CLRF   x21
01E52:  CLRF   x20
01E54:  MOVLB  0
01E56:  RCALL  16A8
01E58:  BNC   1E64
....................    {
....................       x=-x;
01E5A:  MOVLB  5
01E5C:  MOVF   xF5,W
01E5E:  XORLW  80
01E60:  MOVWF  xF5
01E62:  MOVLB  0
....................    }
....................    if (x==0.0)
01E64:  MOVFF  5F7,61F
01E68:  MOVFF  5F6,61E
01E6C:  MOVFF  5F5,61D
01E70:  MOVFF  5F4,61C
01E74:  MOVLB  6
01E76:  CLRF   x23
01E78:  CLRF   x22
01E7A:  CLRF   x21
01E7C:  CLRF   x20
01E7E:  MOVLB  0
01E80:  RCALL  16A8
01E82:  BNZ   1ED6
....................    {
....................       if(y==0.0)
01E84:  MOVFF  5F3,61F
01E88:  MOVFF  5F2,61E
01E8C:  MOVFF  5F1,61D
01E90:  MOVFF  5F0,61C
01E94:  MOVLB  6
01E96:  CLRF   x23
01E98:  CLRF   x22
01E9A:  CLRF   x21
01E9C:  CLRF   x20
01E9E:  MOVLB  0
01EA0:  RCALL  16A8
01EA2:  BNZ   1EA6
....................       {
....................       #ifdef _ERRNO
....................       {
....................          errno=EDOM;
....................       }
....................       #endif
....................       }
01EA4:  BRA    1ED4
....................       else
....................       {
....................          if(sign)
01EA6:  MOVLB  5
01EA8:  BTFSS  xFC.0
01EAA:  BRA    1EC0
....................          {
....................          return (-(PI_DIV_BY_TWO));
01EAC:  MOVLW  7F
01EAE:  MOVWF  00
01EB0:  MOVLW  C9
01EB2:  MOVWF  01
01EB4:  MOVLW  0F
01EB6:  MOVWF  02
01EB8:  MOVLW  DB
01EBA:  MOVWF  03
01EBC:  BRA    200E
....................          }
01EBE:  BRA    1ED2
....................          else
....................          {
....................          return (PI_DIV_BY_TWO);
01EC0:  MOVLW  7F
01EC2:  MOVWF  00
01EC4:  MOVLW  49
01EC6:  MOVWF  01
01EC8:  MOVLW  0F
01ECA:  MOVWF  02
01ECC:  MOVLW  DB
01ECE:  MOVWF  03
01ED0:  BRA    200E
01ED2:  MOVLB  0
....................          }
....................       }
....................    }
01ED4:  BRA    200C
....................    else
....................    {
....................       z=y/x;
01ED6:  MOVFF  5F3,618
01EDA:  MOVFF  5F2,617
01EDE:  MOVFF  5F1,616
01EE2:  MOVFF  5F0,615
01EE6:  MOVFF  5F7,61C
01EEA:  MOVFF  5F6,61B
01EEE:  MOVFF  5F5,61A
01EF2:  MOVFF  5F4,619
01EF6:  RCALL  1722
01EF8:  MOVFF  03,5FB
01EFC:  MOVFF  02,5FA
01F00:  MOVFF  01,5F9
01F04:  MOVFF  00,5F8
....................       switch(quad)
01F08:  MOVLW  01
01F0A:  MOVLB  5
01F0C:  SUBWF  xFD,W
01F0E:  ADDLW  FC
01F10:  BTFSC  FD8.0
01F12:  BRA    200E
01F14:  ADDLW  04
01F16:  MOVLB  0
01F18:  GOTO   2014
....................       {
....................          case 1:
....................          {
....................             return atan(z);
01F1C:  MOVFF  5FB,601
01F20:  MOVFF  5FA,600
01F24:  MOVFF  5F9,5FF
01F28:  MOVFF  5F8,5FE
01F2C:  RCALL  1880
01F2E:  MOVLB  5
01F30:  BRA    200E
....................             break;
01F32:  BRA    200E
01F34:  MOVLB  0
....................          }
....................          case 2:
....................          {
.................... //            return (atan(z)+PI_DIV_BY_TWO);  //2L3122
....................             return (PI-atan(z));
01F36:  MOVFF  5FB,601
01F3A:  MOVFF  5FA,600
01F3E:  MOVFF  5F9,5FF
01F42:  MOVFF  5F8,5FE
01F46:  RCALL  1880
01F48:  MOVFF  FEA,5FF
01F4C:  MOVFF  FE9,5FE
01F50:  BSF    FD8.1
01F52:  MOVLW  DB
01F54:  MOVLB  6
01F56:  MOVWF  x23
01F58:  MOVLW  0F
01F5A:  MOVWF  x22
01F5C:  MOVLW  49
01F5E:  MOVWF  x21
01F60:  MOVLW  80
01F62:  MOVWF  x20
01F64:  MOVFF  03,627
01F68:  MOVFF  02,626
01F6C:  MOVFF  01,625
01F70:  MOVFF  00,624
01F74:  MOVLB  0
01F76:  CALL   1430
01F7A:  MOVFF  5FF,FEA
01F7E:  MOVFF  5FE,FE9
01F82:  MOVLB  5
01F84:  BRA    200E
....................             break;
01F86:  BRA    200E
01F88:  MOVLB  0
....................          }
....................          case 3:
....................          {
....................             return (atan(z)-PI);
01F8A:  MOVFF  5FB,601
01F8E:  MOVFF  5FA,600
01F92:  MOVFF  5F9,5FF
01F96:  MOVFF  5F8,5FE
01F9A:  RCALL  1880
01F9C:  MOVFF  03,601
01FA0:  MOVFF  02,600
01FA4:  MOVFF  01,5FF
01FA8:  MOVFF  00,5FE
01FAC:  MOVFF  FEA,603
01FB0:  MOVFF  FE9,602
01FB4:  BSF    FD8.1
01FB6:  MOVFF  03,623
01FBA:  MOVFF  02,622
01FBE:  MOVFF  01,621
01FC2:  MOVFF  00,620
01FC6:  MOVLW  DB
01FC8:  MOVLB  6
01FCA:  MOVWF  x27
01FCC:  MOVLW  0F
01FCE:  MOVWF  x26
01FD0:  MOVLW  49
01FD2:  MOVWF  x25
01FD4:  MOVLW  80
01FD6:  MOVWF  x24
01FD8:  MOVLB  0
01FDA:  CALL   1430
01FDE:  MOVFF  603,FEA
01FE2:  MOVFF  602,FE9
01FE6:  MOVLB  5
01FE8:  BRA    200E
....................             break;
01FEA:  BRA    200E
01FEC:  MOVLB  0
....................          }
....................          case 4:
....................          {
....................             return (-atan(z));
01FEE:  MOVFF  5FB,601
01FF2:  MOVFF  5FA,600
01FF6:  MOVFF  5F9,5FF
01FFA:  MOVFF  5F8,5FE
01FFE:  RCALL  1880
02000:  MOVLW  80
02002:  XORWF  01,F
02004:  MOVLB  5
02006:  BRA    200E
....................             break;
02008:  BRA    200E
0200A:  MOVLB  0
0200C:  MOVLB  5
....................          }
....................       }
....................    }
0200E:  MOVLB  0
02010:  GOTO   374C (RETURN)
.................... }
.................... 
.................... //Overloaded functions for atan2() for PCD
.................... // Overloaded function atan2() for data type - Float48
.................... #if defined(__PCD__)
.................... float48 atan2(float48 y,float48 x)
.................... {
....................    float48 z;
....................    int1 sign;
....................    unsigned int8 quad;
....................    sign=0;
....................    quad=0; //quadrant
....................    quad=((y<=0.0)?((x<=0.0)?3:4):((x<0.0)?2:1));
....................    if(y<0.0)
....................    {
....................       sign=1;
....................       y=-y;
....................    }
....................    if(x<0.0)
....................    {
....................       x=-x;
....................    }
....................    if (x==0.0)
....................    {
....................       if(y==0.0)
....................       {
....................       #ifdef _ERRNO
....................       {
....................          errno=EDOM;
....................       }
....................       #endif
....................       }
....................       else
....................       {
....................          if(sign)
....................          {
....................          return (-(PI_DIV_BY_TWO));
....................          }
....................          else
....................          {
....................          return (PI_DIV_BY_TWO);
....................          }
....................       }
....................    }
....................    else
....................    {
....................       z=y/x;
....................       switch(quad)
....................       {
....................          case 1:
....................          {
....................             return atan(z);
....................             break;
....................          }
....................          case 2:
....................          {
.................... //            return (atan(z)+PI_DIV_BY_TWO);  //2L3122
....................             return (PI-atan(z));
....................             break;
....................          }
....................          case 3:
....................          {
....................             return (atan(z)-PI);
....................             break;
....................          }
....................          case 4:
....................          {
....................             return (-atan(z));
....................             break;
....................          }
....................       }
....................    }
.................... }
.................... 
.................... // Overloaded function atan2() for data type - Float64
.................... float64 atan2(float64 y,float64 x)
.................... {
....................    float64 z;
....................    int1 sign;
....................    unsigned int8 quad;
....................    sign=0;
....................    quad=0; //quadrant
....................    quad=((y<=0.0)?((x<=0.0)?3:4):((x<0.0)?2:1));
....................    if(y<0.0)
....................    {
....................       sign=1;
....................       y=-y;
....................    }
....................    if(x<0.0)
....................    {
....................       x=-x;
....................    }
....................    if (x==0.0)
....................    {
....................       if(y==0.0)
....................       {
....................       #ifdef _ERRNO
....................       {
....................          errno=EDOM;
....................       }
....................       #endif
....................       }
....................       else
....................       {
....................          if(sign)
....................          {
....................          return (-(PI_DIV_BY_TWO));
....................          }
....................          else
....................          {
....................          return (PI_DIV_BY_TWO);
....................          }
....................       }
....................    }
....................    else
....................    {
....................       z=y/x;
....................       switch(quad)
....................       {
....................          case 1:
....................          {
....................             return atan(z);
....................             break;
....................          }
....................          case 2:
....................          {
.................... //            return (atan(z)+PI_DIV_BY_TWO);  //2L3122
....................             return (PI-atan(z));
....................             break;
....................          }
....................          case 3:
....................          {
....................             return (atan(z)-PI);
....................             break;
....................          }
....................          case 4:
....................          {
....................             return (-atan(z));
....................             break;
....................          }
....................       }
....................    }
.................... }
.................... #endif
.................... 
.................... //////////////////// Hyperbolic functions ////////////////////
.................... 
.................... ////////////////////////////////////////////////////////////////////////////
.................... //   float cosh(float x)
.................... ////////////////////////////////////////////////////////////////////////////
.................... // Description : Computes the hyperbolic cosine value of x
.................... // Returns : returns the hyperbolic cosine value of x
.................... // Date : N/A
.................... //
.................... 
.................... float32 cosh(float32 x)
.................... {
....................    return ((exp(x)+exp(-x))*0.5);
.................... }
.................... //Overloaded functions for cosh() for PCD
.................... // Overloaded function cosh() for data type - Float48
.................... #if defined(__PCD__)
.................... float48 cosh(float48 x)
.................... {
....................    return ((exp(x)+exp(-x))*0.5);
.................... }
.................... 
.................... // Overloaded function cosh() for data type - Float64
.................... float64 cosh(float64 x)
.................... {
....................    return ((exp(x)+exp(-x))*0.5);
.................... }
.................... #endif
.................... 
.................... ////////////////////////////////////////////////////////////////////////////
.................... //   float sinh(float x)
.................... ////////////////////////////////////////////////////////////////////////////
.................... // Description : Computes the hyperbolic sine value of x
.................... // Returns : returns the hyperbolic sine value of x
.................... // Date : N/A
.................... //
.................... 
.................... float32 sinh(float32 x)
.................... {
.................... 
....................    return ((exp(x) - exp(-x))*0.5);
.................... }
.................... //Overloaded functions for sinh() for PCD
.................... // Overloaded function sinh() for data type - Float48
.................... #if defined(__PCD__)
.................... float48 sinh(float48 x)
.................... {
.................... 
....................    return ((exp(x) - exp(-x))*0.5);
.................... }
.................... 
.................... // Overloaded function sinh() for data type - Float48
.................... float64 sinh(float64 x)
.................... {
.................... 
....................    return ((exp(x) - exp(-x))*0.5);
.................... }
.................... #endif
.................... 
.................... ////////////////////////////////////////////////////////////////////////////
.................... //   float tanh(float x)
.................... ////////////////////////////////////////////////////////////////////////////
.................... // Description : Computes the hyperbolic tangent value of x
.................... // Returns : returns the hyperbolic tangent value of x
.................... // Date : N/A
.................... //
.................... 
.................... float32 tanh(float32 x)
.................... {
....................    return(sinh(x)/cosh(x));
.................... }
.................... //Overloaded functions for tanh() for PCD
.................... // Overloaded function tanh() for data type - Float48
.................... #if defined(__PCD__)
.................... float48 tanh(float48 x)
.................... {
....................    return(sinh(x)/cosh(x));
.................... }
.................... 
.................... // Overloaded function tanh() for data type - Float64
.................... float64 tanh(float64 x)
.................... {
....................    return(sinh(x)/cosh(x));
.................... }
.................... #endif
.................... 
.................... ////////////////////////////////////////////////////////////////////////////
.................... //   float frexp(float x, signed int *exp)
.................... ////////////////////////////////////////////////////////////////////////////
.................... // Description : breaks a floating point number into a normalized fraction and an integral
.................... // power of 2. It stores the integer in the signed int object pointed to by exp.
.................... // Returns : returns the value x, such that x is a double with magnitude in the interval
.................... // [1/2,1) or zero, and value equals x times 2 raised to the power *exp.If value is zero,
.................... // both parts of the result are zero.
.................... // Date : N/A
.................... //
.................... 
.................... #define LOG2 .30102999566398119521
.................... #define LOG2_INV 3.32192809488736234787
.................... float32 frexp(float32 x, signed int8 *exp)
.................... {
....................    float32 res;
....................    int1 sign = 0;
....................    if(x == 0.0)
....................    {
....................       *exp=0;
....................       return (0.0);
....................    }
....................    if(x < 0.0)
....................    {
....................      x=-x;
....................      sign=1;
....................    }
....................    if (x > 1.0)
....................    {
....................       *exp=(ceil(log10(x)*LOG2_INV));
....................       res=x/(pow(2, *exp));
....................       if (res == 1)
....................       {
....................          *exp=*exp+1;
....................           res=.5;
....................       }
....................    }
....................    else
....................    {
....................       if(x < 0.5)
....................       {
....................          *exp=-1;
....................          res=x*2;
....................       }
....................       else
....................       {
....................          *exp=0;
....................           res=x;
....................       }
....................    }
....................    if(sign)
....................    {
....................       res=-res;
....................    }
....................    return res;
.................... }
.................... 
.................... //Overloaded functions for frexp() for PCD
.................... // Overloaded function frexp() for data type - Float48
.................... #if defined(__PCD__)
.................... float48 frexp(float48 x, signed int8 *exp)
.................... {
....................    float48 res;
....................    int1 sign = 0;
....................    if(x == 0.0)
....................    {
....................       *exp=0;
....................       return (0.0);
....................    }
....................    if(x < 0.0)
....................    {
....................      x=-x;
....................      sign=1;
....................    }
....................    if (x > 1.0)
....................    {
....................       *exp=(ceil(log10(x)*LOG2_INV));
....................       res=x/(pow(2, *exp));
....................       if (res == 1)
....................       {
....................          *exp=*exp+1;
....................           res=.5;
....................       }
....................    }
....................    else
....................    {
....................       if(x < 0.5)
....................       {
....................          *exp=-1;
....................          res=x*2;
....................       }
....................       else
....................       {
....................          *exp=0;
....................           res=x;
....................       }
....................    }
....................    if(sign)
....................    {
....................       res=-res;
....................    }
....................    return res;
.................... }
.................... 
.................... // Overloaded function frexp() for data type - Float64
.................... float64 frexp(float64 x, signed int8 *exp)
.................... {
....................    float64 res;
....................    int1 sign = 0;
....................    if(x == 0.0)
....................    {
....................       *exp=0;
....................       return (0.0);
....................    }
....................    if(x < 0.0)
....................    {
....................      x=-x;
....................      sign=1;
....................    }
....................    if (x > 1.0)
....................    {
....................       *exp=(ceil(log10(x)*LOG2_INV));
....................       res=x/(pow(2, *exp));
....................       if (res == 1)
....................       {
....................          *exp=*exp+1;
....................           res=.5;
....................       }
....................    }
....................    else
....................    {
....................       if(x < 0.5)
....................       {
....................          *exp=-1;
....................          res=x*2;
....................       }
....................       else
....................       {
....................          *exp=0;
....................           res=x;
....................       }
....................    }
....................    if(sign)
....................    {
....................       res=-res;
....................    }
....................    return res;
.................... }
.................... #endif
.................... 
.................... //////////////////////////////////////////////////////////////////////////////
.................... //   float ldexp(float x, signed int *exp)
.................... //////////////////////////////////////////////////////////////////////////////
.................... // Description : multiplies a floating point number by an integral power of 2.
.................... // Returns : returns the value of x times 2 raised to the power exp.
.................... // Date : N/A
.................... //
.................... 
.................... float32 ldexp(float32 value, signed int8 exp)
.................... {
....................    return (value * pow(2,exp));
.................... }
.................... //Overloaded functions for ldexp() for PCD
.................... // Overloaded function ldexp() for data type - Float48
.................... 
.................... #if defined(__PCD__)
.................... float48 ldexp(float48 value, signed int8 exp)
.................... {
....................    return (value * pow(2,exp));
.................... }
.................... // Overloaded function ldexp() for data type - Float64
.................... float64 ldexp(float64 value, signed int8 exp)
.................... {
....................    return (value * pow(2,exp));
.................... }
.................... #endif
.................... 
.................... #endif
.................... 
.................... 
.................... #define sensorSampleRate 50 // 50mS delay between each sensor sample = 100ms cadence 
.................... 
.................... #define maxCount 16777216.0   // ADC max count
.................... #define vRef 2.048            // ADC vRef
.................... 
.................... #define sc sensorCal
.................... 
.................... #define vMonN15   6
.................... #define vMon200   16
.................... #define vMon5V6   24
.................... #define vMon5VA   25
.................... #define vMon3V6X  17
.................... #define vMon3V3A  27
.................... #define vMon3V3D  26
.................... 
.................... #define BUFFER_SIZE 5
.................... 
.................... signed int32 sQ_x[BUFFER_SIZE];
.................... signed int32 cQ_x[BUFFER_SIZE];
.................... signed int32 sQ_y[BUFFER_SIZE];
.................... signed int32 cQ_y[BUFFER_SIZE];
.................... int sIn_x=0;
.................... int cIn_x=0;
.................... int sIn_y=0;
.................... int cIn_y=0;
.................... 
.................... struct sensorMonitorData
.................... {
....................    boolean dataReady;
....................    boolean adcBusy;
....................    signed int32 avgSin;
....................    signed int32 avgCos;
.................... } smData[2] = 
.................... {
....................    {false, false, 0, 0},
....................    {false, false, 0, 0}
.................... };
.................... 
.................... void push(signed int32* buff, int* idx, signed int32 newData) {
....................    buff[*idx]=newData;
*
00840:  MOVFF  606,FEA
00844:  MOVLB  6
00846:  MOVFF  605,FE9
0084A:  CLRF   x0D
0084C:  MOVFF  FEF,60C
00850:  CLRF   x0F
00852:  MOVLW  04
00854:  MOVWF  x0E
00856:  MOVLB  0
00858:  RCALL  07F2
0085A:  MOVF   01,W
0085C:  MOVLB  6
0085E:  ADDWF  x03,W
00860:  MOVWF  FE9
00862:  MOVF   x04,W
00864:  ADDWFC 02,W
00866:  MOVWF  FEA
00868:  MOVFF  607,FEF
0086C:  MOVFF  608,FEC
00870:  MOVFF  609,FEC
00874:  MOVFF  60A,FEC
....................    *idx=(*idx+1) % BUFFER_SIZE;
00878:  MOVFF  606,60C
0087C:  MOVFF  606,FEA
00880:  MOVFF  605,FE9
00884:  MOVLW  01
00886:  ADDWF  FEF,W
00888:  MOVWF  x0E
0088A:  MOVWF  x0F
0088C:  MOVLW  05
0088E:  MOVWF  x10
00890:  MOVLB  0
00892:  RCALL  0814
00894:  MOVLB  6
00896:  MOVFF  60C,FEA
0089A:  MOVFF  605,FE9
0089E:  MOVFF  00,FEF
008A2:  MOVLB  0
008A4:  RETURN 0
.................... }
.................... 
.................... /*****************************************************************************/
.................... /* INTERNAL MONITOR task - gets voltages                                     */
.................... /* gets one value each time the task is run                                  */
.................... /*****************************************************************************/
.................... void internal_monitor_task(){
....................    static int8 state = 0;
....................    if (adc_done()){
....................       switch (state)
....................       {
....................          case 0:     // vMonN15
....................             monitorVals.vN15 = read_adc(ADC_READ_ONLY) * monCal.vN15[1] + monCal.vN15[0];
....................             set_adc_channel(vMon200);
....................             delay_ms(10);
....................             read_adc(ADC_START_ONLY);
....................             state = 1;
....................          break;
....................          
....................          case 1:     // vMon200
....................             monitorVals.v200 = read_adc(ADC_READ_ONLY) * monCal.v200[1] + monCal.v200[0];
....................             set_adc_channel(vMon5V6);
....................             delay_ms(10);
....................             read_adc(ADC_START_ONLY);
....................             state = 2;
....................          break;
....................          
....................          case 2:     // vMon5V6
....................             monitorVals.v5V6 = read_adc(ADC_READ_ONLY) * monCal.v5V6[1] + monCal.v5V6[0];
....................             set_adc_channel(vMon5VA);
....................             delay_ms(10);
....................             read_adc(ADC_START_ONLY);
....................             state = 3;
....................          break;
....................          
....................          case 3:     // vMon5VA
....................             monitorVals.v5VA = read_adc(ADC_READ_ONLY) * monCal.v5VA[1] + monCal.v5VA[0];
....................             set_adc_channel(vMon3V6X);
....................             delay_ms(10);
....................             read_adc(ADC_START_ONLY);
....................             state = 4;
....................          break;
....................          
....................          case 4:     // vMon3V6X
....................             monitorVals.v3V6X = read_adc(ADC_READ_ONLY) * monCal.v3V6X[1] + monCal.v3V6X[0];
....................             set_adc_channel(vMon3V3A);
....................             delay_ms(10);
....................             read_adc(ADC_START_ONLY);
....................             state = 5;
....................          break;
....................          
....................          case 5:     // vMon3V3A
....................             monitorVals.v3V3A = read_adc(ADC_READ_ONLY) * monCal.v3V3A[1] + monCal.v3V3A[0];
....................             set_adc_channel(vMon3V3D);
....................             delay_ms(10);
....................             read_adc(ADC_START_ONLY);
....................             state = 6;
....................          break;
....................          
....................          case 6:    // vMon3V3D
....................             monitorVals.v3V3D = read_adc(ADC_READ_ONLY) * monCal.v3V3D[1] + monCal.v3V3D[0];
....................             set_adc_channel(vMonN15);
....................             read_adc(ADC_START_ONLY);
....................             state = 0;
....................          break;   
....................       }
....................    }
.................... }
.................... /*****************************************************************************/
.................... /* PROCESS ADC SENSOR DATA                                                   */
.................... /*****************************************************************************/
.................... void sensor_process_data(int8 ch){
....................    adcVals[ch].sinLast = adcVals[ch].sinCounts;
*
03098:  MOVLB  5
0309A:  MOVF   xD9,W
0309C:  MULLW  26
0309E:  MOVF   FF3,W
030A0:  CLRF   xE3
030A2:  MOVWF  xE2
030A4:  MOVLW  10
030A6:  ADDWF  xE2,W
030A8:  MOVWF  01
030AA:  MOVLW  00
030AC:  ADDWFC xE3,W
030AE:  MOVWF  03
030B0:  MOVF   01,W
030B2:  ADDLW  17
030B4:  MOVWF  01
030B6:  MOVLW  01
030B8:  ADDWFC 03,F
030BA:  MOVFF  01,5E2
030BE:  MOVFF  03,5E3
030C2:  MOVF   xD9,W
030C4:  MULLW  26
030C6:  MOVF   FF3,W
030C8:  CLRF   xE5
030CA:  MOVWF  xE4
030CC:  MOVLW  08
030CE:  ADDWF  xE4,W
030D0:  MOVWF  01
030D2:  MOVLW  00
030D4:  ADDWFC xE5,W
030D6:  MOVWF  03
030D8:  MOVF   01,W
030DA:  ADDLW  17
030DC:  MOVWF  FE9
030DE:  MOVLW  01
030E0:  ADDWFC 03,W
030E2:  MOVWF  FEA
030E4:  MOVFF  FEF,00
030E8:  MOVFF  FEC,01
030EC:  MOVFF  FEC,02
030F0:  MOVFF  FEC,03
030F4:  MOVFF  5E3,FEA
030F8:  MOVFF  5E2,FE9
030FC:  MOVFF  00,FEF
03100:  MOVFF  01,FEC
03104:  MOVFF  02,FEC
03108:  MOVFF  03,FEC
....................    adcVals[ch].cosLast = adcVals[ch].cosCounts;
0310C:  MOVF   xD9,W
0310E:  MULLW  26
03110:  MOVF   FF3,W
03112:  CLRF   xE3
03114:  MOVWF  xE2
03116:  MOVLW  14
03118:  ADDWF  xE2,W
0311A:  MOVWF  01
0311C:  MOVLW  00
0311E:  ADDWFC xE3,W
03120:  MOVWF  03
03122:  MOVF   01,W
03124:  ADDLW  17
03126:  MOVWF  01
03128:  MOVLW  01
0312A:  ADDWFC 03,F
0312C:  MOVFF  01,5E2
03130:  MOVFF  03,5E3
03134:  MOVF   xD9,W
03136:  MULLW  26
03138:  MOVF   FF3,W
0313A:  CLRF   xE5
0313C:  MOVWF  xE4
0313E:  MOVLW  0C
03140:  ADDWF  xE4,W
03142:  MOVWF  01
03144:  MOVLW  00
03146:  ADDWFC xE5,W
03148:  MOVWF  03
0314A:  MOVF   01,W
0314C:  ADDLW  17
0314E:  MOVWF  FE9
03150:  MOVLW  01
03152:  ADDWFC 03,W
03154:  MOVWF  FEA
03156:  MOVFF  FEF,00
0315A:  MOVFF  FEC,01
0315E:  MOVFF  FEC,02
03162:  MOVFF  FEC,03
03166:  MOVFF  5E3,FEA
0316A:  MOVFF  5E2,FE9
0316E:  MOVFF  00,FEF
03172:  MOVFF  01,FEC
03176:  MOVFF  02,FEC
0317A:  MOVFF  03,FEC
....................    
....................    adcVals[ch].sinRaw = (float)smData[ch].avgSin;
0317E:  MOVF   xD9,W
03180:  MULLW  26
03182:  MOVF   FF3,W
03184:  CLRF   xE3
03186:  MOVWF  xE2
03188:  MOVLW  17
0318A:  ADDWF  xE2,W
0318C:  MOVWF  01
0318E:  MOVLW  01
03190:  ADDWFC xE3,W
03192:  MOVWF  03
03194:  MOVFF  01,5E4
03198:  MOVWF  xE5
0319A:  MOVF   xD9,W
0319C:  MULLW  09
0319E:  MOVF   FF3,W
031A0:  CLRF   xE7
031A2:  MOVWF  xE6
031A4:  MOVLW  01
031A6:  ADDWF  xE6,W
031A8:  MOVWF  01
031AA:  MOVLW  00
031AC:  ADDWFC xE7,W
031AE:  MOVWF  03
031B0:  MOVF   01,W
031B2:  ADDLW  D4
031B4:  MOVWF  FE9
031B6:  MOVLW  01
031B8:  ADDWFC 03,W
031BA:  MOVWF  FEA
031BC:  MOVFF  FEF,5E6
031C0:  MOVFF  FEC,01
031C4:  MOVFF  FEC,02
031C8:  MOVFF  FEC,03
031CC:  MOVFF  03,5E9
031D0:  MOVFF  02,5E8
031D4:  MOVFF  01,5E7
031D8:  MOVLB  0
031DA:  CALL   12E0
031DE:  MOVFF  5E5,FEA
031E2:  MOVFF  5E4,FE9
031E6:  MOVFF  00,FEF
031EA:  MOVFF  01,FEC
031EE:  MOVFF  02,FEC
031F2:  MOVFF  03,FEC
....................    adcVals[ch].cosRaw = (float)smData[ch].avgCos;
031F6:  MOVLB  5
031F8:  MOVF   xD9,W
031FA:  MULLW  26
031FC:  MOVF   FF3,W
031FE:  CLRF   xE3
03200:  MOVWF  xE2
03202:  MOVLW  04
03204:  ADDWF  xE2,W
03206:  MOVWF  01
03208:  MOVLW  00
0320A:  ADDWFC xE3,W
0320C:  MOVWF  03
0320E:  MOVF   01,W
03210:  ADDLW  17
03212:  MOVWF  01
03214:  MOVLW  01
03216:  ADDWFC 03,F
03218:  MOVFF  01,5E2
0321C:  MOVFF  03,5E3
03220:  MOVF   xD9,W
03222:  MULLW  09
03224:  MOVF   FF3,W
03226:  CLRF   xE5
03228:  MOVWF  xE4
0322A:  MOVLW  05
0322C:  ADDWF  xE4,W
0322E:  MOVWF  01
03230:  MOVLW  00
03232:  ADDWFC xE5,W
03234:  MOVWF  03
03236:  MOVF   01,W
03238:  ADDLW  D4
0323A:  MOVWF  FE9
0323C:  MOVLW  01
0323E:  ADDWFC 03,W
03240:  MOVWF  FEA
03242:  MOVFF  FEF,5E6
03246:  MOVFF  FEC,01
0324A:  MOVFF  FEC,02
0324E:  MOVFF  FEC,03
03252:  MOVFF  03,5E9
03256:  MOVFF  02,5E8
0325A:  MOVFF  01,5E7
0325E:  MOVLB  0
03260:  CALL   12E0
03264:  MOVFF  5E3,FEA
03268:  MOVFF  5E2,FE9
0326C:  MOVFF  00,FEF
03270:  MOVFF  01,FEC
03274:  MOVFF  02,FEC
03278:  MOVFF  03,FEC
....................    
....................    adcVals[ch].sinCounts = adcVals[ch].sinRaw * adcCal[ch].sinGain + adcCal[ch].sinOS;
0327C:  MOVLB  5
0327E:  MOVF   xD9,W
03280:  MULLW  26
03282:  MOVF   FF3,W
03284:  CLRF   xE3
03286:  MOVWF  xE2
03288:  MOVLW  08
0328A:  ADDWF  xE2,W
0328C:  MOVWF  01
0328E:  MOVLW  00
03290:  ADDWFC xE3,W
03292:  MOVWF  03
03294:  MOVF   01,W
03296:  ADDLW  17
03298:  MOVWF  01
0329A:  MOVLW  01
0329C:  ADDWFC 03,F
0329E:  MOVFF  01,5E2
032A2:  MOVFF  03,5E3
032A6:  MOVF   xD9,W
032A8:  MULLW  26
032AA:  MOVF   FF3,W
032AC:  CLRF   xE5
032AE:  MOVWF  xE4
032B0:  MOVLW  17
032B2:  ADDWF  xE4,W
032B4:  MOVWF  FE9
032B6:  MOVLW  01
032B8:  ADDWFC xE5,W
032BA:  MOVWF  FEA
032BC:  MOVFF  FEF,61C
032C0:  MOVFF  FEC,61D
032C4:  MOVFF  FEC,61E
032C8:  MOVFF  FEC,61F
032CC:  MOVF   xD9,W
032CE:  MULLW  10
032D0:  MOVF   FF3,W
032D2:  CLRF   xEB
032D4:  MOVWF  xEA
032D6:  MOVLW  08
032D8:  ADDWF  xEA,W
032DA:  MOVWF  01
032DC:  MOVLW  00
032DE:  ADDWFC xEB,W
032E0:  MOVWF  03
032E2:  MOVF   01,W
032E4:  ADDLW  72
032E6:  MOVWF  FE9
032E8:  MOVLW  00
032EA:  ADDWFC 03,W
032EC:  MOVWF  FEA
032EE:  MOVFF  FEF,620
032F2:  MOVFF  FEC,01
032F6:  MOVFF  FEC,02
032FA:  MOVFF  FEC,03
032FE:  MOVFF  03,623
03302:  MOVFF  02,622
03306:  MOVFF  01,621
0330A:  MOVLB  0
0330C:  CALL   133A
03310:  MOVFF  03,623
03314:  MOVFF  02,622
03318:  MOVFF  01,621
0331C:  MOVFF  00,620
03320:  MOVLB  5
03322:  MOVF   xD9,W
03324:  MULLW  10
03326:  MOVF   FF3,W
03328:  CLRF   xEB
0332A:  MOVWF  xEA
0332C:  MOVLW  72
0332E:  ADDWF  xEA,W
03330:  MOVWF  FE9
03332:  MOVLW  00
03334:  ADDWFC xEB,W
03336:  MOVWF  FEA
03338:  MOVFF  FEF,624
0333C:  MOVFF  FEC,01
03340:  MOVFF  FEC,02
03344:  MOVFF  FEC,03
03348:  BCF    FD8.1
0334A:  MOVFF  03,627
0334E:  MOVFF  02,626
03352:  MOVFF  01,625
03356:  MOVLB  0
03358:  CALL   1430
0335C:  MOVFF  5E3,FEA
03360:  MOVFF  5E2,FE9
03364:  MOVFF  00,FEF
03368:  MOVFF  01,FEC
0336C:  MOVFF  02,FEC
03370:  MOVFF  03,FEC
....................    adcVals[ch].cosCounts = adcVals[ch].cosRaw * adcCal[ch].cosGain + adcCal[ch].cosOS;
03374:  MOVLB  5
03376:  MOVF   xD9,W
03378:  MULLW  26
0337A:  MOVF   FF3,W
0337C:  CLRF   xE3
0337E:  MOVWF  xE2
03380:  MOVLW  0C
03382:  ADDWF  xE2,W
03384:  MOVWF  01
03386:  MOVLW  00
03388:  ADDWFC xE3,W
0338A:  MOVWF  03
0338C:  MOVF   01,W
0338E:  ADDLW  17
03390:  MOVWF  01
03392:  MOVLW  01
03394:  ADDWFC 03,F
03396:  MOVFF  01,5E2
0339A:  MOVFF  03,5E3
0339E:  MOVF   xD9,W
033A0:  MULLW  26
033A2:  MOVF   FF3,W
033A4:  CLRF   xE5
033A6:  MOVWF  xE4
033A8:  MOVLW  04
033AA:  ADDWF  xE4,W
033AC:  MOVWF  01
033AE:  MOVLW  00
033B0:  ADDWFC xE5,W
033B2:  MOVWF  03
033B4:  MOVF   01,W
033B6:  ADDLW  17
033B8:  MOVWF  FE9
033BA:  MOVLW  01
033BC:  ADDWFC 03,W
033BE:  MOVWF  FEA
033C0:  MOVFF  FEF,61C
033C4:  MOVFF  FEC,61D
033C8:  MOVFF  FEC,61E
033CC:  MOVFF  FEC,61F
033D0:  MOVF   xD9,W
033D2:  MULLW  10
033D4:  MOVF   FF3,W
033D6:  CLRF   xE9
033D8:  MOVWF  xE8
033DA:  MOVLW  0C
033DC:  ADDWF  xE8,W
033DE:  MOVWF  01
033E0:  MOVLW  00
033E2:  ADDWFC xE9,W
033E4:  MOVWF  03
033E6:  MOVF   01,W
033E8:  ADDLW  72
033EA:  MOVWF  FE9
033EC:  MOVLW  00
033EE:  ADDWFC 03,W
033F0:  MOVWF  FEA
033F2:  MOVFF  FEF,620
033F6:  MOVFF  FEC,01
033FA:  MOVFF  FEC,02
033FE:  MOVFF  FEC,03
03402:  MOVFF  03,623
03406:  MOVFF  02,622
0340A:  MOVFF  01,621
0340E:  MOVLB  0
03410:  CALL   133A
03414:  MOVFF  03,623
03418:  MOVFF  02,622
0341C:  MOVFF  01,621
03420:  MOVFF  00,620
03424:  MOVLB  5
03426:  MOVF   xD9,W
03428:  MULLW  10
0342A:  MOVF   FF3,W
0342C:  CLRF   xE9
0342E:  MOVWF  xE8
03430:  MOVLW  04
03432:  ADDWF  xE8,W
03434:  MOVWF  01
03436:  MOVLW  00
03438:  ADDWFC xE9,W
0343A:  MOVWF  03
0343C:  MOVF   01,W
0343E:  ADDLW  72
03440:  MOVWF  FE9
03442:  MOVLW  00
03444:  ADDWFC 03,W
03446:  MOVWF  FEA
03448:  MOVFF  FEF,624
0344C:  MOVFF  FEC,01
03450:  MOVFF  FEC,02
03454:  MOVFF  FEC,03
03458:  BCF    FD8.1
0345A:  MOVFF  03,627
0345E:  MOVFF  02,626
03462:  MOVFF  01,625
03466:  MOVLB  0
03468:  CALL   1430
0346C:  MOVFF  5E3,FEA
03470:  MOVFF  5E2,FE9
03474:  MOVFF  00,FEF
03478:  MOVFF  01,FEC
0347C:  MOVFF  02,FEC
03480:  MOVFF  03,FEC
....................    float pTmp = 0;
....................    float polePitch = magPP;
03484:  MOVLB  5
03486:  CLRF   xDD
03488:  CLRF   xDC
0348A:  CLRF   xDB
0348C:  CLRF   xDA
0348E:  CLRF   xE1
03490:  CLRF   xE0
03492:  CLRF   xDF
03494:  MOVLW  7F
03496:  MOVWF  xDE
....................    
....................    if (adcVals[ch].cosCounts < 0){
03498:  MOVF   xD9,W
0349A:  MULLW  26
0349C:  MOVF   FF3,W
0349E:  CLRF   xE3
034A0:  MOVWF  xE2
034A2:  MOVLW  0C
034A4:  ADDWF  xE2,W
034A6:  MOVWF  01
034A8:  MOVLW  00
034AA:  ADDWFC xE3,W
034AC:  MOVWF  03
034AE:  MOVF   01,W
034B0:  ADDLW  17
034B2:  MOVWF  FE9
034B4:  MOVLW  01
034B6:  ADDWFC 03,W
034B8:  MOVWF  FEA
034BA:  MOVFF  FEF,61C
034BE:  MOVFF  FEC,61D
034C2:  MOVFF  FEC,61E
034C6:  MOVFF  FEC,61F
034CA:  MOVLB  6
034CC:  CLRF   x23
034CE:  CLRF   x22
034D0:  CLRF   x21
034D2:  CLRF   x20
034D4:  MOVLB  0
034D6:  CALL   16A8
034DA:  BTFSS  FD8.0
034DC:  BRA    364E
....................       if ((adcVals[ch].sinCounts > 0) && (adcVals[ch].sinLast < 0)){
034DE:  MOVLB  5
034E0:  MOVF   xD9,W
034E2:  MULLW  26
034E4:  MOVF   FF3,W
034E6:  CLRF   xE3
034E8:  MOVWF  xE2
034EA:  MOVLW  08
034EC:  ADDWF  xE2,W
034EE:  MOVWF  01
034F0:  MOVLW  00
034F2:  ADDWFC xE3,W
034F4:  MOVWF  03
034F6:  MOVF   01,W
034F8:  ADDLW  17
034FA:  MOVWF  FE9
034FC:  MOVLW  01
034FE:  ADDWFC 03,W
03500:  MOVWF  FEA
03502:  MOVFF  FEF,620
03506:  MOVFF  FEC,5E3
0350A:  MOVFF  FEC,622
0350E:  MOVFF  FEC,623
03512:  MOVLB  6
03514:  CLRF   x1F
03516:  CLRF   x1E
03518:  CLRF   x1D
0351A:  CLRF   x1C
0351C:  MOVFF  5E3,621
03520:  MOVLB  0
03522:  CALL   16A8
03526:  BNC   3596
03528:  MOVLB  5
0352A:  MOVF   xD9,W
0352C:  MULLW  26
0352E:  MOVF   FF3,W
03530:  CLRF   xE3
03532:  MOVWF  xE2
03534:  MOVLW  10
03536:  ADDWF  xE2,W
03538:  MOVWF  01
0353A:  MOVLW  00
0353C:  ADDWFC xE3,W
0353E:  MOVWF  03
03540:  MOVF   01,W
03542:  ADDLW  17
03544:  MOVWF  FE9
03546:  MOVLW  01
03548:  ADDWFC 03,W
0354A:  MOVWF  FEA
0354C:  MOVFF  FEF,61C
03550:  MOVFF  FEC,61D
03554:  MOVFF  FEC,61E
03558:  MOVFF  FEC,61F
0355C:  MOVLB  6
0355E:  CLRF   x23
03560:  CLRF   x22
03562:  CLRF   x21
03564:  CLRF   x20
03566:  MOVLB  0
03568:  CALL   16A8
0356C:  BNC   3596
....................          adcVals[ch].npoles--;
0356E:  MOVLB  5
03570:  MOVF   xD9,W
03572:  MULLW  26
03574:  MOVF   FF3,W
03576:  CLRF   xE3
03578:  MOVWF  xE2
0357A:  MOVLW  1C
0357C:  ADDWF  xE2,W
0357E:  MOVWF  01
03580:  MOVLW  00
03582:  ADDWFC xE3,W
03584:  MOVWF  03
03586:  MOVF   01,W
03588:  ADDLW  17
0358A:  MOVWF  FE9
0358C:  MOVLW  01
0358E:  ADDWFC 03,W
03590:  MOVWF  FEA
03592:  DECF   FEF,F
....................       }
03594:  BRA    364C
....................       else if ((adcVals[ch].sinCounts < 0) && (adcVals[ch].sinLast > 0)){
03596:  MOVLB  5
03598:  MOVF   xD9,W
0359A:  MULLW  26
0359C:  MOVF   FF3,W
0359E:  CLRF   xE3
035A0:  MOVWF  xE2
035A2:  MOVLW  08
035A4:  ADDWF  xE2,W
035A6:  MOVWF  01
035A8:  MOVLW  00
035AA:  ADDWFC xE3,W
035AC:  MOVWF  03
035AE:  MOVF   01,W
035B0:  ADDLW  17
035B2:  MOVWF  FE9
035B4:  MOVLW  01
035B6:  ADDWFC 03,W
035B8:  MOVWF  FEA
035BA:  MOVFF  FEF,61C
035BE:  MOVFF  FEC,5E3
035C2:  MOVFF  FEC,61E
035C6:  MOVFF  FEC,61F
035CA:  MOVFF  5E3,61D
035CE:  MOVLB  6
035D0:  CLRF   x23
035D2:  CLRF   x22
035D4:  CLRF   x21
035D6:  CLRF   x20
035D8:  MOVLB  0
035DA:  CALL   16A8
035DE:  BNC   364E
035E0:  MOVLB  5
035E2:  MOVF   xD9,W
035E4:  MULLW  26
035E6:  MOVF   FF3,W
035E8:  CLRF   xE3
035EA:  MOVWF  xE2
035EC:  MOVLW  10
035EE:  ADDWF  xE2,W
035F0:  MOVWF  01
035F2:  MOVLW  00
035F4:  ADDWFC xE3,W
035F6:  MOVWF  03
035F8:  MOVF   01,W
035FA:  ADDLW  17
035FC:  MOVWF  FE9
035FE:  MOVLW  01
03600:  ADDWFC 03,W
03602:  MOVWF  FEA
03604:  MOVFF  FEF,620
03608:  MOVFF  FEC,621
0360C:  MOVFF  FEC,622
03610:  MOVFF  FEC,623
03614:  MOVLB  6
03616:  CLRF   x1F
03618:  CLRF   x1E
0361A:  CLRF   x1D
0361C:  CLRF   x1C
0361E:  MOVLB  0
03620:  CALL   16A8
03624:  BNC   364E
....................          adcVals[ch].npoles++;
03626:  MOVLB  5
03628:  MOVF   xD9,W
0362A:  MULLW  26
0362C:  MOVF   FF3,W
0362E:  CLRF   xE3
03630:  MOVWF  xE2
03632:  MOVLW  1C
03634:  ADDWF  xE2,W
03636:  MOVWF  01
03638:  MOVLW  00
0363A:  ADDWFC xE3,W
0363C:  MOVWF  03
0363E:  MOVF   01,W
03640:  ADDLW  17
03642:  MOVWF  FE9
03644:  MOVLW  01
03646:  ADDWFC 03,W
03648:  MOVWF  FEA
0364A:  INCF   FEF,F
0364C:  MOVLB  0
....................       }
....................    }
....................    
....................    adcVals[ch].p0 = polePitch * ( 1000 / (2*PI) ) * atan2( (float)adcVals[ch].sinCounts, (float)adcVals[ch].cosCounts );
0364E:  MOVLB  5
03650:  MOVF   xD9,W
03652:  MULLW  26
03654:  MOVF   FF3,W
03656:  CLRF   xE3
03658:  MOVWF  xE2
0365A:  MOVLW  18
0365C:  ADDWF  xE2,W
0365E:  MOVWF  01
03660:  MOVLW  00
03662:  ADDWFC xE3,W
03664:  MOVWF  03
03666:  MOVF   01,W
03668:  ADDLW  17
0366A:  MOVWF  01
0366C:  MOVLW  01
0366E:  ADDWFC 03,F
03670:  MOVFF  01,5E2
03674:  MOVFF  03,5E3
03678:  MOVFF  5E1,61F
0367C:  MOVFF  5E0,61E
03680:  MOVFF  5DF,61D
03684:  MOVFF  5DE,61C
03688:  MOVLW  AA
0368A:  MOVLB  6
0368C:  MOVWF  x23
0368E:  MOVLW  27
03690:  MOVWF  x22
03692:  MOVLW  1F
03694:  MOVWF  x21
03696:  MOVLW  86
03698:  MOVWF  x20
0369A:  MOVLB  0
0369C:  CALL   133A
036A0:  MOVFF  03,5E7
036A4:  MOVFF  02,5E6
036A8:  MOVFF  01,5E5
036AC:  MOVFF  00,5E4
036B0:  MOVLB  5
036B2:  MOVF   xD9,W
036B4:  MULLW  26
036B6:  MOVF   FF3,W
036B8:  CLRF   xE9
036BA:  MOVWF  xE8
036BC:  MOVLW  08
036BE:  ADDWF  xE8,W
036C0:  MOVWF  01
036C2:  MOVLW  00
036C4:  ADDWFC xE9,W
036C6:  MOVWF  03
036C8:  MOVF   01,W
036CA:  ADDLW  17
036CC:  MOVWF  FE9
036CE:  MOVLW  01
036D0:  ADDWFC 03,W
036D2:  MOVWF  FEA
036D4:  MOVFF  FEF,5E8
036D8:  MOVFF  FEC,5E9
036DC:  MOVFF  FEC,5EA
036E0:  MOVFF  FEC,5EB
036E4:  MOVF   xD9,W
036E6:  MULLW  26
036E8:  MOVF   FF3,W
036EA:  CLRF   xED
036EC:  MOVWF  xEC
036EE:  MOVLW  0C
036F0:  ADDWF  xEC,W
036F2:  MOVWF  01
036F4:  MOVLW  00
036F6:  ADDWFC xED,W
036F8:  MOVWF  03
036FA:  MOVF   01,W
036FC:  ADDLW  17
036FE:  MOVWF  FE9
03700:  MOVLW  01
03702:  ADDWFC 03,W
03704:  MOVWF  FEA
03706:  MOVFF  FEF,00
0370A:  MOVFF  FEC,01
0370E:  MOVFF  FEC,02
03712:  MOVFF  FEC,03
03716:  MOVFF  03,5EF
0371A:  MOVFF  02,5EE
0371E:  MOVFF  01,5ED
03722:  MOVFF  00,5EC
03726:  MOVFF  5EB,5F3
0372A:  MOVFF  5EA,5F2
0372E:  MOVFF  5E9,5F1
03732:  MOVFF  5E8,5F0
03736:  MOVFF  03,5F7
0373A:  MOVFF  02,5F6
0373E:  MOVFF  01,5F5
03742:  MOVFF  00,5F4
03746:  MOVLB  0
03748:  GOTO   1D92
0374C:  MOVFF  5E7,61F
03750:  MOVFF  5E6,61E
03754:  MOVFF  5E5,61D
03758:  MOVFF  5E4,61C
0375C:  MOVFF  03,623
03760:  MOVFF  02,622
03764:  MOVFF  01,621
03768:  MOVFF  00,620
0376C:  CALL   133A
03770:  MOVFF  5E3,FEA
03774:  MOVFF  5E2,FE9
03778:  MOVFF  00,FEF
0377C:  MOVFF  01,FEC
03780:  MOVFF  02,FEC
03784:  MOVFF  03,FEC
....................    pTmp = adcVals[ch].p0 + ( 1000 * polePitch * (float)adcVals[ch].npoles );
03788:  MOVLB  5
0378A:  MOVF   xD9,W
0378C:  MULLW  26
0378E:  MOVF   FF3,W
03790:  CLRF   xE3
03792:  MOVWF  xE2
03794:  MOVLW  18
03796:  ADDWF  xE2,W
03798:  MOVWF  01
0379A:  MOVLW  00
0379C:  ADDWFC xE3,W
0379E:  MOVWF  03
037A0:  MOVF   01,W
037A2:  ADDLW  17
037A4:  MOVWF  FE9
037A6:  MOVLW  01
037A8:  ADDWFC 03,W
037AA:  MOVWF  FEA
037AC:  MOVFF  FEF,5E2
037B0:  MOVFF  FEC,5E3
037B4:  MOVFF  FEC,5E4
037B8:  MOVFF  FEC,5E5
037BC:  MOVLB  6
037BE:  CLRF   x1F
037C0:  CLRF   x1E
037C2:  MOVLW  7A
037C4:  MOVWF  x1D
037C6:  MOVLW  88
037C8:  MOVWF  x1C
037CA:  MOVFF  5E1,623
037CE:  MOVFF  5E0,622
037D2:  MOVFF  5DF,621
037D6:  MOVFF  5DE,620
037DA:  MOVLB  0
037DC:  CALL   133A
037E0:  MOVFF  03,5E9
037E4:  MOVFF  02,5E8
037E8:  MOVFF  01,5E7
037EC:  MOVFF  00,5E6
037F0:  MOVLB  5
037F2:  MOVF   xD9,W
037F4:  MULLW  26
037F6:  MOVF   FF3,W
037F8:  CLRF   xEB
037FA:  MOVWF  xEA
037FC:  MOVLW  1C
037FE:  ADDWF  xEA,W
03800:  MOVWF  01
03802:  MOVLW  00
03804:  ADDWFC xEB,W
03806:  MOVWF  03
03808:  MOVF   01,W
0380A:  ADDLW  17
0380C:  MOVWF  FE9
0380E:  MOVLW  01
03810:  ADDWFC 03,W
03812:  MOVWF  FEA
03814:  MOVF   FEF,W
03816:  MOVLB  6
03818:  CLRF   x13
0381A:  MOVWF  x12
0381C:  BTFSC  x12.7
0381E:  DECF   x13,F
03820:  MOVLB  0
03822:  CALL   2036
03826:  MOVFF  5E9,61F
0382A:  MOVFF  5E8,61E
0382E:  MOVFF  5E7,61D
03832:  MOVFF  5E6,61C
03836:  MOVFF  03,623
0383A:  MOVFF  02,622
0383E:  MOVFF  01,621
03842:  MOVFF  00,620
03846:  CALL   133A
0384A:  MOVFF  FEA,5E7
0384E:  MOVFF  FE9,5E6
03852:  BCF    FD8.1
03854:  MOVFF  5E5,623
03858:  MOVFF  5E4,622
0385C:  MOVFF  5E3,621
03860:  MOVFF  5E2,620
03864:  MOVFF  03,627
03868:  MOVFF  02,626
0386C:  MOVFF  01,625
03870:  MOVFF  00,624
03874:  CALL   1430
03878:  MOVFF  5E7,FEA
0387C:  MOVFF  5E6,FE9
03880:  MOVFF  03,5DD
03884:  MOVFF  02,5DC
03888:  MOVFF  01,5DB
0388C:  MOVFF  00,5DA
....................    
....................    adcVals[ch].pReal = sc[ch].c5*pow(pTmp,5) + sc[ch].c4*pow(pTmp,4) + sc[ch].c3*pow(pTmp,3) + sc[ch].c2*pow(pTmp,2) + sc[ch].c1*(pTmp) + sc[ch].c0;
03890:  MOVLB  5
03892:  MOVF   xD9,W
03894:  MULLW  26
03896:  MOVF   FF3,W
03898:  CLRF   xE3
0389A:  MOVWF  xE2
0389C:  MOVLW  1D
0389E:  ADDWF  xE2,W
038A0:  MOVWF  01
038A2:  MOVLW  00
038A4:  ADDWFC xE3,W
038A6:  MOVWF  03
038A8:  MOVF   01,W
038AA:  ADDLW  17
038AC:  MOVWF  01
038AE:  MOVLW  01
038B0:  ADDWFC 03,F
038B2:  MOVFF  01,5E2
038B6:  MOVFF  03,5E3
038BA:  MOVF   xD9,W
038BC:  MULLW  18
038BE:  MOVF   FF3,W
038C0:  CLRF   xE5
038C2:  MOVWF  xE4
038C4:  MOVLW  14
038C6:  ADDWF  xE4,W
038C8:  MOVWF  01
038CA:  MOVLW  00
038CC:  ADDWFC xE5,W
038CE:  MOVWF  03
038D0:  MOVF   01,W
038D2:  ADDLW  92
038D4:  MOVWF  FE9
038D6:  MOVLW  00
038D8:  ADDWFC 03,W
038DA:  MOVWF  FEA
038DC:  MOVFF  FEF,5E4
038E0:  MOVFF  FEC,5E5
038E4:  MOVFF  FEC,5E6
038E8:  MOVFF  FEC,5E7
038EC:  MOVFF  5DD,5F3
038F0:  MOVFF  5DC,5F2
038F4:  MOVFF  5DB,5F1
038F8:  MOVFF  5DA,5F0
038FC:  CLRF   xF7
038FE:  CLRF   xF6
03900:  MOVLW  20
03902:  MOVWF  xF5
03904:  MOVLW  81
03906:  MOVWF  xF4
03908:  MOVLB  0
0390A:  CALL   2D9A
0390E:  MOVFF  5E7,61F
03912:  MOVFF  5E6,61E
03916:  MOVFF  5E5,61D
0391A:  MOVFF  5E4,61C
0391E:  MOVFF  03,623
03922:  MOVFF  02,622
03926:  MOVFF  01,621
0392A:  MOVFF  00,620
0392E:  CALL   133A
03932:  MOVFF  03,5E7
03936:  MOVFF  02,5E6
0393A:  MOVFF  01,5E5
0393E:  MOVFF  00,5E4
03942:  MOVLB  5
03944:  MOVF   xD9,W
03946:  MULLW  18
03948:  MOVF   FF3,W
0394A:  CLRF   xE9
0394C:  MOVWF  xE8
0394E:  MOVLW  10
03950:  ADDWF  xE8,W
03952:  MOVWF  01
03954:  MOVLW  00
03956:  ADDWFC xE9,W
03958:  MOVWF  03
0395A:  MOVF   01,W
0395C:  ADDLW  92
0395E:  MOVWF  FE9
03960:  MOVLW  00
03962:  ADDWFC 03,W
03964:  MOVWF  FEA
03966:  MOVFF  FEF,5E8
0396A:  MOVFF  FEC,5E9
0396E:  MOVFF  FEC,5EA
03972:  MOVFF  FEC,5EB
03976:  MOVFF  5DD,5F3
0397A:  MOVFF  5DC,5F2
0397E:  MOVFF  5DB,5F1
03982:  MOVFF  5DA,5F0
03986:  CLRF   xF7
03988:  CLRF   xF6
0398A:  CLRF   xF5
0398C:  MOVLW  81
0398E:  MOVWF  xF4
03990:  MOVLB  0
03992:  CALL   2D9A
03996:  MOVFF  5EB,61F
0399A:  MOVFF  5EA,61E
0399E:  MOVFF  5E9,61D
039A2:  MOVFF  5E8,61C
039A6:  MOVFF  03,623
039AA:  MOVFF  02,622
039AE:  MOVFF  01,621
039B2:  MOVFF  00,620
039B6:  CALL   133A
039BA:  MOVFF  FEA,5E9
039BE:  MOVFF  FE9,5E8
039C2:  BCF    FD8.1
039C4:  MOVFF  5E7,623
039C8:  MOVFF  5E6,622
039CC:  MOVFF  5E5,621
039D0:  MOVFF  5E4,620
039D4:  MOVFF  03,627
039D8:  MOVFF  02,626
039DC:  MOVFF  01,625
039E0:  MOVFF  00,624
039E4:  CALL   1430
039E8:  MOVFF  5E9,FEA
039EC:  MOVFF  5E8,FE9
039F0:  MOVFF  03,5E7
039F4:  MOVFF  02,5E6
039F8:  MOVFF  01,5E5
039FC:  MOVFF  00,5E4
03A00:  MOVLB  5
03A02:  MOVF   xD9,W
03A04:  MULLW  18
03A06:  MOVF   FF3,W
03A08:  CLRF   xEB
03A0A:  MOVWF  xEA
03A0C:  MOVLW  0C
03A0E:  ADDWF  xEA,W
03A10:  MOVWF  01
03A12:  MOVLW  00
03A14:  ADDWFC xEB,W
03A16:  MOVWF  03
03A18:  MOVF   01,W
03A1A:  ADDLW  92
03A1C:  MOVWF  FE9
03A1E:  MOVLW  00
03A20:  ADDWFC 03,W
03A22:  MOVWF  FEA
03A24:  MOVFF  FEF,5EA
03A28:  MOVFF  FEC,5EB
03A2C:  MOVFF  FEC,5EC
03A30:  MOVFF  FEC,5ED
03A34:  MOVFF  5DD,5F3
03A38:  MOVFF  5DC,5F2
03A3C:  MOVFF  5DB,5F1
03A40:  MOVFF  5DA,5F0
03A44:  CLRF   xF7
03A46:  CLRF   xF6
03A48:  MOVLW  40
03A4A:  MOVWF  xF5
03A4C:  MOVLW  80
03A4E:  MOVWF  xF4
03A50:  MOVLB  0
03A52:  CALL   2D9A
03A56:  MOVFF  5ED,61F
03A5A:  MOVFF  5EC,61E
03A5E:  MOVFF  5EB,61D
03A62:  MOVFF  5EA,61C
03A66:  MOVFF  03,623
03A6A:  MOVFF  02,622
03A6E:  MOVFF  01,621
03A72:  MOVFF  00,620
03A76:  CALL   133A
03A7A:  MOVFF  FEA,5EB
03A7E:  MOVFF  FE9,5EA
03A82:  BCF    FD8.1
03A84:  MOVFF  5E7,623
03A88:  MOVFF  5E6,622
03A8C:  MOVFF  5E5,621
03A90:  MOVFF  5E4,620
03A94:  MOVFF  03,627
03A98:  MOVFF  02,626
03A9C:  MOVFF  01,625
03AA0:  MOVFF  00,624
03AA4:  CALL   1430
03AA8:  MOVFF  5EB,FEA
03AAC:  MOVFF  5EA,FE9
03AB0:  MOVFF  03,5E7
03AB4:  MOVFF  02,5E6
03AB8:  MOVFF  01,5E5
03ABC:  MOVFF  00,5E4
03AC0:  MOVLB  5
03AC2:  MOVF   xD9,W
03AC4:  MULLW  18
03AC6:  MOVF   FF3,W
03AC8:  CLRF   xED
03ACA:  MOVWF  xEC
03ACC:  MOVLW  08
03ACE:  ADDWF  xEC,W
03AD0:  MOVWF  01
03AD2:  MOVLW  00
03AD4:  ADDWFC xED,W
03AD6:  MOVWF  03
03AD8:  MOVF   01,W
03ADA:  ADDLW  92
03ADC:  MOVWF  FE9
03ADE:  MOVLW  00
03AE0:  ADDWFC 03,W
03AE2:  MOVWF  FEA
03AE4:  MOVFF  FEF,5EC
03AE8:  MOVFF  FEC,5ED
03AEC:  MOVFF  FEC,5EE
03AF0:  MOVFF  FEC,5EF
03AF4:  MOVFF  5DD,5F3
03AF8:  MOVFF  5DC,5F2
03AFC:  MOVFF  5DB,5F1
03B00:  MOVFF  5DA,5F0
03B04:  CLRF   xF7
03B06:  CLRF   xF6
03B08:  CLRF   xF5
03B0A:  MOVLW  80
03B0C:  MOVWF  xF4
03B0E:  MOVLB  0
03B10:  CALL   2D9A
03B14:  MOVFF  5EF,61F
03B18:  MOVFF  5EE,61E
03B1C:  MOVFF  5ED,61D
03B20:  MOVFF  5EC,61C
03B24:  MOVFF  03,623
03B28:  MOVFF  02,622
03B2C:  MOVFF  01,621
03B30:  MOVFF  00,620
03B34:  CALL   133A
03B38:  MOVFF  FEA,5ED
03B3C:  MOVFF  FE9,5EC
03B40:  BCF    FD8.1
03B42:  MOVFF  5E7,623
03B46:  MOVFF  5E6,622
03B4A:  MOVFF  5E5,621
03B4E:  MOVFF  5E4,620
03B52:  MOVFF  03,627
03B56:  MOVFF  02,626
03B5A:  MOVFF  01,625
03B5E:  MOVFF  00,624
03B62:  CALL   1430
03B66:  MOVFF  5ED,FEA
03B6A:  MOVFF  5EC,FE9
03B6E:  MOVFF  03,5E7
03B72:  MOVFF  02,5E6
03B76:  MOVFF  01,5E5
03B7A:  MOVFF  00,5E4
03B7E:  MOVLB  5
03B80:  MOVF   xD9,W
03B82:  MULLW  18
03B84:  MOVF   FF3,W
03B86:  CLRF   xEF
03B88:  MOVWF  xEE
03B8A:  MOVLW  04
03B8C:  ADDWF  xEE,W
03B8E:  MOVWF  01
03B90:  MOVLW  00
03B92:  ADDWFC xEF,W
03B94:  MOVWF  03
03B96:  MOVF   01,W
03B98:  ADDLW  92
03B9A:  MOVWF  FE9
03B9C:  MOVLW  00
03B9E:  ADDWFC 03,W
03BA0:  MOVWF  FEA
03BA2:  MOVFF  FEF,61C
03BA6:  MOVFF  FEC,61D
03BAA:  MOVFF  FEC,61E
03BAE:  MOVFF  FEC,5F1
03BB2:  MOVFF  5F1,61F
03BB6:  MOVFF  5DD,623
03BBA:  MOVFF  5DC,622
03BBE:  MOVFF  5DB,621
03BC2:  MOVFF  5DA,620
03BC6:  MOVLB  0
03BC8:  CALL   133A
03BCC:  MOVFF  FEA,5EF
03BD0:  MOVFF  FE9,5EE
03BD4:  BCF    FD8.1
03BD6:  MOVFF  5E7,623
03BDA:  MOVFF  5E6,622
03BDE:  MOVFF  5E5,621
03BE2:  MOVFF  5E4,620
03BE6:  MOVFF  03,627
03BEA:  MOVFF  02,626
03BEE:  MOVFF  01,625
03BF2:  MOVFF  00,624
03BF6:  CALL   1430
03BFA:  MOVFF  5EF,FEA
03BFE:  MOVFF  5EE,FE9
03C02:  MOVFF  03,623
03C06:  MOVFF  02,622
03C0A:  MOVFF  01,621
03C0E:  MOVFF  00,620
03C12:  MOVLB  5
03C14:  MOVF   xD9,W
03C16:  MULLW  18
03C18:  MOVF   FF3,W
03C1A:  CLRF   xF1
03C1C:  MOVWF  xF0
03C1E:  MOVLW  92
03C20:  ADDWF  xF0,W
03C22:  MOVWF  FE9
03C24:  MOVLW  00
03C26:  ADDWFC xF1,W
03C28:  MOVWF  FEA
03C2A:  MOVFF  FEF,624
03C2E:  MOVFF  FEC,01
03C32:  MOVFF  FEC,02
03C36:  MOVFF  FEC,03
03C3A:  BCF    FD8.1
03C3C:  MOVFF  03,627
03C40:  MOVFF  02,626
03C44:  MOVFF  01,625
03C48:  MOVLB  0
03C4A:  CALL   1430
03C4E:  MOVFF  5E3,FEA
03C52:  MOVFF  5E2,FE9
03C56:  MOVFF  00,FEF
03C5A:  MOVFF  01,FEC
03C5E:  MOVFF  02,FEC
03C62:  MOVFF  03,FEC
....................    adcVals[ch].pReal -= adcVals[ch].pHome;
03C66:  MOVLB  5
03C68:  MOVF   xD9,W
03C6A:  MULLW  26
03C6C:  MOVF   FF3,W
03C6E:  CLRF   xE3
03C70:  MOVWF  xE2
03C72:  MOVLW  1D
03C74:  ADDWF  xE2,W
03C76:  MOVWF  01
03C78:  MOVLW  00
03C7A:  ADDWFC xE3,W
03C7C:  MOVWF  03
03C7E:  MOVF   01,W
03C80:  ADDLW  17
03C82:  MOVWF  01
03C84:  MOVLW  01
03C86:  ADDWFC 03,F
03C88:  MOVFF  01,5E2
03C8C:  MOVFF  03,5E3
03C90:  MOVFF  03,FEA
03C94:  MOVFF  01,FE9
03C98:  MOVFF  FEF,620
03C9C:  MOVFF  FEC,621
03CA0:  MOVFF  FEC,622
03CA4:  MOVFF  FEC,623
03CA8:  MOVF   xD9,W
03CAA:  MULLW  26
03CAC:  MOVF   FF3,W
03CAE:  CLRF   xE9
03CB0:  MOVWF  xE8
03CB2:  MOVLW  21
03CB4:  ADDWF  xE8,W
03CB6:  MOVWF  01
03CB8:  MOVLW  00
03CBA:  ADDWFC xE9,W
03CBC:  MOVWF  03
03CBE:  MOVF   01,W
03CC0:  ADDLW  17
03CC2:  MOVWF  FE9
03CC4:  MOVLW  01
03CC6:  ADDWFC 03,W
03CC8:  MOVWF  FEA
03CCA:  MOVFF  FEF,624
03CCE:  MOVFF  FEC,01
03CD2:  MOVFF  FEC,02
03CD6:  MOVFF  FEC,03
03CDA:  BSF    FD8.1
03CDC:  MOVFF  03,627
03CE0:  MOVFF  02,626
03CE4:  MOVFF  01,625
03CE8:  MOVLB  0
03CEA:  CALL   1430
03CEE:  MOVFF  5E3,FEA
03CF2:  MOVFF  5E2,FE9
03CF6:  MOVFF  00,FEF
03CFA:  MOVFF  01,FEC
03CFE:  MOVFF  02,FEC
03D02:  MOVFF  03,FEC
....................    if (ch == chX) adcVals[ch].pReal *= -1;
03D06:  MOVLB  5
03D08:  MOVF   xD9,F
03D0A:  BNZ   3D6A
03D0C:  MOVF   xD9,W
03D0E:  MULLW  26
03D10:  MOVF   FF3,W
03D12:  CLRF   xE3
03D14:  MOVWF  xE2
03D16:  MOVLW  1D
03D18:  ADDWF  xE2,W
03D1A:  MOVWF  01
03D1C:  MOVLW  00
03D1E:  ADDWFC xE3,W
03D20:  MOVWF  03
03D22:  MOVF   01,W
03D24:  ADDLW  17
03D26:  MOVWF  FE9
03D28:  MOVLW  01
03D2A:  ADDWFC 03,W
03D2C:  MOVWF  FEA
03D2E:  MOVFF  FEF,61C
03D32:  MOVFF  FEC,61D
03D36:  MOVFF  FEC,61E
03D3A:  MOVFF  FEC,61F
03D3E:  MOVF   FED,F
03D40:  MOVF   FED,F
03D42:  MOVF   FED,F
03D44:  MOVLB  6
03D46:  CLRF   x23
03D48:  CLRF   x22
03D4A:  MOVLW  80
03D4C:  MOVWF  x21
03D4E:  MOVLW  7F
03D50:  MOVWF  x20
03D52:  MOVLB  0
03D54:  CALL   133A
03D58:  MOVFF  00,FEF
03D5C:  MOVFF  01,FEC
03D60:  MOVFF  02,FEC
03D64:  MOVFF  03,FEC
03D68:  MOVLB  5
....................    
....................    PID[ch].PVold = PID[ch].PV;
03D6A:  MOVF   xD9,W
03D6C:  MULLW  28
03D6E:  MOVF   FF3,W
03D70:  CLRF   xE3
03D72:  MOVWF  xE2
03D74:  MOVLW  14
03D76:  ADDWF  xE2,W
03D78:  MOVWF  01
03D7A:  MOVLW  00
03D7C:  ADDWFC xE3,W
03D7E:  MOVWF  03
03D80:  MOVF   01,W
03D82:  ADDLW  20
03D84:  MOVWF  01
03D86:  MOVLW  00
03D88:  ADDWFC 03,F
03D8A:  MOVFF  01,5E2
03D8E:  MOVFF  03,5E3
03D92:  MOVF   xD9,W
03D94:  MULLW  28
03D96:  MOVF   FF3,W
03D98:  CLRF   xE5
03D9A:  MOVWF  xE4
03D9C:  MOVLW  10
03D9E:  ADDWF  xE4,W
03DA0:  MOVWF  01
03DA2:  MOVLW  00
03DA4:  ADDWFC xE5,W
03DA6:  MOVWF  03
03DA8:  MOVF   01,W
03DAA:  ADDLW  20
03DAC:  MOVWF  FE9
03DAE:  MOVLW  00
03DB0:  ADDWFC 03,W
03DB2:  MOVWF  FEA
03DB4:  MOVFF  FEF,00
03DB8:  MOVFF  FEC,01
03DBC:  MOVFF  FEC,02
03DC0:  MOVFF  FEC,03
03DC4:  MOVFF  5E3,FEA
03DC8:  MOVFF  5E2,FE9
03DCC:  MOVFF  00,FEF
03DD0:  MOVFF  01,FEC
03DD4:  MOVFF  02,FEC
03DD8:  MOVFF  03,FEC
....................    PID[ch].PV = adcVals[ch].pReal;
03DDC:  MOVF   xD9,W
03DDE:  MULLW  28
03DE0:  MOVF   FF3,W
03DE2:  CLRF   xE3
03DE4:  MOVWF  xE2
03DE6:  MOVLW  10
03DE8:  ADDWF  xE2,W
03DEA:  MOVWF  01
03DEC:  MOVLW  00
03DEE:  ADDWFC xE3,W
03DF0:  MOVWF  03
03DF2:  MOVF   01,W
03DF4:  ADDLW  20
03DF6:  MOVWF  01
03DF8:  MOVLW  00
03DFA:  ADDWFC 03,F
03DFC:  MOVFF  01,5E2
03E00:  MOVFF  03,5E3
03E04:  MOVF   xD9,W
03E06:  MULLW  26
03E08:  MOVF   FF3,W
03E0A:  CLRF   xE5
03E0C:  MOVWF  xE4
03E0E:  MOVLW  1D
03E10:  ADDWF  xE4,W
03E12:  MOVWF  01
03E14:  MOVLW  00
03E16:  ADDWFC xE5,W
03E18:  MOVWF  03
03E1A:  MOVF   01,W
03E1C:  ADDLW  17
03E1E:  MOVWF  FE9
03E20:  MOVLW  01
03E22:  ADDWFC 03,W
03E24:  MOVWF  FEA
03E26:  MOVFF  FEF,00
03E2A:  MOVFF  FEC,01
03E2E:  MOVFF  FEC,02
03E32:  MOVFF  FEC,03
03E36:  MOVFF  5E3,FEA
03E3A:  MOVFF  5E2,FE9
03E3E:  MOVFF  00,FEF
03E42:  MOVFF  01,FEC
03E46:  MOVFF  02,FEC
03E4A:  MOVFF  03,FEC
03E4E:  MOVLB  0
03E50:  GOTO   3FAC (RETURN)
.................... }  
.................... 
.................... /*****************************************************************************/
.................... /* SENSOR MONITOR INTERRUPT TASK                                             */
.................... /* starts conversion of the other two ADCs                                   */
.................... /*****************************************************************************/
.................... void sensor_monitor_interrupt_task(){
....................    static int8 ch = 0;
....................    
....................    if (!smData[ch].adcBusy){
*
001B2:  MOVLB  1
001B4:  MOVF   xE7,W
001B6:  MULLW  09
001B8:  MOVF   FF3,W
001BA:  MOVLB  6
001BC:  CLRF   x31
001BE:  MOVWF  x30
001C0:  MOVLW  D4
001C2:  ADDWF  x30,W
001C4:  MOVWF  FE9
001C6:  MOVLW  01
001C8:  ADDWFC x31,W
001CA:  MOVWF  FEA
001CC:  BTFSC  FEF.1
001CE:  BRA    0248
....................       smData[ch].adcBusy = true;
001D0:  MOVLB  1
001D2:  MOVF   xE7,W
001D4:  MULLW  09
001D6:  MOVF   FF3,W
001D8:  MOVLB  6
001DA:  CLRF   x31
001DC:  MOVWF  x30
001DE:  MOVLW  D4
001E0:  ADDWF  x30,W
001E2:  MOVWF  FE9
001E4:  MOVLW  01
001E6:  ADDWFC x31,W
001E8:  MOVWF  FEA
001EA:  BSF    FEF.1
....................          
....................       ads_start_conv_block(ch);
001EC:  MOVFF  1E7,630
001F0:  MOVLB  0
001F2:  BRA    0196
....................       ch = !ch;
001F4:  MOVLB  1
001F6:  MOVF   xE7,F
001F8:  BZ    01FE
001FA:  MOVLW  00
001FC:  BRA    0200
001FE:  MOVLW  01
00200:  MOVWF  xE7
....................          
....................       smData[!ch].dataReady = true;
00202:  MOVF   xE7,F
00204:  BZ    020A
00206:  MOVLW  00
00208:  BRA    020C
0020A:  MOVLW  01
0020C:  MULLW  09
0020E:  MOVF   FF3,W
00210:  MOVLB  6
00212:  CLRF   x31
00214:  MOVWF  x30
00216:  MOVLW  D4
00218:  ADDWF  x30,W
0021A:  MOVWF  FE9
0021C:  MOVLW  01
0021E:  ADDWFC x31,W
00220:  MOVWF  FEA
00222:  BSF    FEF.0
....................       smData[!ch].adcBusy = false;
00224:  MOVLB  1
00226:  MOVF   xE7,F
00228:  BZ    022E
0022A:  MOVLW  00
0022C:  BRA    0230
0022E:  MOVLW  01
00230:  MULLW  09
00232:  MOVF   FF3,W
00234:  MOVLB  6
00236:  CLRF   x31
00238:  MOVWF  x30
0023A:  MOVLW  D4
0023C:  ADDWF  x30,W
0023E:  MOVWF  FE9
00240:  MOVLW  01
00242:  ADDWFC x31,W
00244:  MOVWF  FEA
00246:  BCF    FEF.1
....................    }
00248:  MOVLB  0
0024A:  GOTO   030C (RETURN)
.................... }
.................... 
.................... /*****************************************************************************/
.................... /* Interquartile Mean Ring Buffer                                            */
.................... /* Filters the ADC data to remove spurious readings                          */
.................... /*****************************************************************************/
.................... void iqm_ring_buffer(int8 ch, signed int32 sinCnts, signed int32 cosCnts){
*
00D52:  MOVLB  5
00D54:  CLRF   xED
00D56:  CLRF   xEC
00D58:  CLRF   xEB
00D5A:  CLRF   xEA
00D5C:  CLRF   xF1
00D5E:  CLRF   xF0
00D60:  CLRF   xEF
00D62:  CLRF   xEE
00D64:  CLRF   xF5
00D66:  CLRF   xF4
00D68:  CLRF   xF3
00D6A:  CLRF   xF2
00D6C:  CLRF   xF9
00D6E:  CLRF   xF8
00D70:  CLRF   xF7
00D72:  CLRF   xF6
00D74:  CLRF   xFD
00D76:  CLRF   xFC
00D78:  CLRF   xFB
00D7A:  CLRF   xFA
00D7C:  MOVLB  6
00D7E:  CLRF   x01
00D80:  CLRF   x00
00D82:  MOVLB  5
00D84:  CLRF   xFF
00D86:  CLRF   xFE
....................    signed int32* sQ_ch;
....................    signed int32* cQ_ch;
....................    int* sIn_ch;
....................    int* cIn_ch;
.................... 
....................    signed int32 sumSin=0;
....................    signed int32 sumCos=0;
....................    
....................    signed int32 sinMax=0;
....................    signed int32 sinMin=0;
....................    signed int32 cosMax=0;
....................    signed int32 cosMin=0;
....................    
....................    if (ch==0){
00D88:  MOVF   xD9,F
00D8A:  BNZ   0DAE
....................       sQ_ch = sQ_x;
00D8C:  MOVLW  01
00D8E:  MOVWF  xE3
00D90:  MOVLW  80
00D92:  MOVWF  xE2
....................       cQ_ch = cQ_x;
00D94:  MOVLW  01
00D96:  MOVWF  xE5
00D98:  MOVLW  94
00D9A:  MOVWF  xE4
....................       sIn_ch = &sIn_x;
00D9C:  MOVLW  01
00D9E:  MOVWF  xE7
00DA0:  MOVLW  D0
00DA2:  MOVWF  xE6
....................       cIn_ch = &cIn_x;
00DA4:  MOVLW  01
00DA6:  MOVWF  xE9
00DA8:  MOVLW  D1
00DAA:  MOVWF  xE8
....................    }
00DAC:  BRA    0DD2
....................    else if (ch==1){
00DAE:  DECFSZ xD9,W
00DB0:  BRA    0DD2
....................       sQ_ch = sQ_y;
00DB2:  MOVLW  01
00DB4:  MOVWF  xE3
00DB6:  MOVLW  A8
00DB8:  MOVWF  xE2
....................       cQ_ch = cQ_y;
00DBA:  MOVLW  01
00DBC:  MOVWF  xE5
00DBE:  MOVLW  BC
00DC0:  MOVWF  xE4
....................       sIn_ch = &sIn_y;
00DC2:  MOVLW  01
00DC4:  MOVWF  xE7
00DC6:  MOVLW  D2
00DC8:  MOVWF  xE6
....................       cIn_ch = &cIn_y;
00DCA:  MOVLW  01
00DCC:  MOVWF  xE9
00DCE:  MOVLW  D3
00DD0:  MOVWF  xE8
....................    }
.................... 
....................    push(sQ_ch, sIn_ch, sinCnts); // push new data into queues
00DD2:  MOVFF  5E3,604
00DD6:  MOVFF  5E2,603
00DDA:  MOVFF  5E7,606
00DDE:  MOVFF  5E6,605
00DE2:  MOVFF  5DD,60A
00DE6:  MOVFF  5DC,609
00DEA:  MOVFF  5DB,608
00DEE:  MOVFF  5DA,607
00DF2:  MOVLB  0
00DF4:  RCALL  0840
....................    push(cQ_ch, cIn_ch, cosCnts);
00DF6:  MOVFF  5E5,604
00DFA:  MOVFF  5E4,603
00DFE:  MOVFF  5E9,606
00E02:  MOVFF  5E8,605
00E06:  MOVFF  5E1,60A
00E0A:  MOVFF  5E0,609
00E0E:  MOVFF  5DF,608
00E12:  MOVFF  5DE,607
00E16:  RCALL  0840
....................    
....................    // MAX and MIN of the rolling buffer initial vals
....................    sinMax=sQ_ch[0];
00E18:  MOVLB  5
00E1A:  MOVFF  5E2,FE9
00E1E:  MOVFF  5E3,FEA
00E22:  MOVFF  FEF,5F2
00E26:  MOVFF  FEC,5F3
00E2A:  MOVFF  FEC,5F4
00E2E:  MOVFF  FEC,5F5
....................    sinMin=sQ_ch[0];
00E32:  MOVFF  5E2,FE9
00E36:  MOVFF  5E3,FEA
00E3A:  MOVFF  FEF,5F6
00E3E:  MOVFF  FEC,5F7
00E42:  MOVFF  FEC,5F8
00E46:  MOVFF  FEC,5F9
....................    cosMax=cQ_ch[0];
00E4A:  MOVFF  5E4,FE9
00E4E:  MOVFF  5E5,FEA
00E52:  MOVFF  FEF,5FA
00E56:  MOVFF  FEC,5FB
00E5A:  MOVFF  FEC,5FC
00E5E:  MOVFF  FEC,5FD
....................    cosMin=cQ_ch[0];
00E62:  MOVFF  5E4,FE9
00E66:  MOVFF  5E5,FEA
00E6A:  MOVFF  FEF,5FE
00E6E:  MOVFF  FEC,5FF
00E72:  MOVFF  FEC,600
00E76:  MOVFF  FEC,601
....................    
....................    // step thru buffer, adding up all vals and finding MAX and MIN
....................    for (int i=1; i<BUFFER_SIZE; i++){
00E7A:  MOVLW  01
00E7C:  MOVLB  6
00E7E:  MOVWF  x02
00E80:  MOVF   x02,W
00E82:  SUBLW  04
00E84:  BTFSS  FD8.0
00E86:  BRA    11B8
....................       (sinMax < sQ_ch[i]) ? (sinMax=sQ_ch[i]) : (0);
00E88:  CLRF   x0D
00E8A:  MOVFF  602,60C
00E8E:  CLRF   x0F
00E90:  MOVLW  04
00E92:  MOVWF  x0E
00E94:  MOVLB  0
00E96:  RCALL  07F2
00E98:  MOVFF  02,03
00E9C:  MOVF   01,W
00E9E:  MOVLB  5
00EA0:  ADDWF  xE2,W
00EA2:  MOVWF  FE9
00EA4:  MOVF   xE3,W
00EA6:  ADDWFC 02,W
00EA8:  MOVWF  FEA
00EAA:  MOVFF  FEF,00
00EAE:  MOVFF  FEC,01
00EB2:  MOVFF  FEC,02
00EB6:  MOVFF  FEC,03
00EBA:  BTFSS  xF5.7
00EBC:  BRA    0EC4
00EBE:  BTFSS  03.7
00EC0:  BRA    0EE6
00EC2:  BRA    0EC8
00EC4:  BTFSC  03.7
00EC6:  BRA    0F1C
00EC8:  MOVF   xF5,W
00ECA:  SUBWF  03,W
00ECC:  BNC   0F1C
00ECE:  BNZ   0EE6
00ED0:  MOVF   xF4,W
00ED2:  SUBWF  02,W
00ED4:  BNC   0F1C
00ED6:  BNZ   0EE6
00ED8:  MOVF   xF3,W
00EDA:  SUBWF  01,W
00EDC:  BNC   0F1C
00EDE:  BNZ   0EE6
00EE0:  MOVF   00,W
00EE2:  SUBWF  xF2,W
00EE4:  BC    0F1C
00EE6:  MOVLB  6
00EE8:  CLRF   x0D
00EEA:  MOVFF  602,60C
00EEE:  CLRF   x0F
00EF0:  MOVLW  04
00EF2:  MOVWF  x0E
00EF4:  MOVLB  0
00EF6:  RCALL  07F2
00EF8:  MOVFF  02,03
00EFC:  MOVF   01,W
00EFE:  MOVLB  5
00F00:  ADDWF  xE2,W
00F02:  MOVWF  FE9
00F04:  MOVF   xE3,W
00F06:  ADDWFC 02,W
00F08:  MOVWF  FEA
00F0A:  MOVFF  FEF,5F2
00F0E:  MOVFF  FEC,5F3
00F12:  MOVFF  FEC,5F4
00F16:  MOVFF  FEC,5F5
00F1A:  MOVF   xF2,W
....................       (sinMin > sQ_ch[i]) ? (sinMin=sQ_ch[i]) : (0);
00F1C:  MOVLB  6
00F1E:  CLRF   x0D
00F20:  MOVFF  602,60C
00F24:  CLRF   x0F
00F26:  MOVLW  04
00F28:  MOVWF  x0E
00F2A:  MOVLB  0
00F2C:  RCALL  07F2
00F2E:  MOVFF  02,03
00F32:  MOVF   01,W
00F34:  MOVLB  5
00F36:  ADDWF  xE2,W
00F38:  MOVWF  FE9
00F3A:  MOVF   xE3,W
00F3C:  ADDWFC 02,W
00F3E:  MOVWF  FEA
00F40:  MOVFF  FEF,00
00F44:  MOVFF  FEC,01
00F48:  MOVFF  FEC,02
00F4C:  MOVFF  FEC,03
00F50:  BTFSS  03.7
00F52:  BRA    0F5A
00F54:  BTFSS  xF9.7
00F56:  BRA    0F7C
00F58:  BRA    0F5E
00F5A:  BTFSC  xF9.7
00F5C:  BRA    0FC0
00F5E:  MOVF   03,W
00F60:  SUBWF  xF9,W
00F62:  BNC   0FC0
00F64:  BNZ   0F7C
00F66:  MOVF   02,W
00F68:  SUBWF  xF8,W
00F6A:  BNC   0FC0
00F6C:  BNZ   0F7C
00F6E:  MOVF   01,W
00F70:  SUBWF  xF7,W
00F72:  BNC   0FC0
00F74:  BNZ   0F7C
00F76:  MOVF   xF6,W
00F78:  SUBWF  00,W
00F7A:  BC    0FC0
00F7C:  MOVLB  6
00F7E:  CLRF   x0D
00F80:  MOVFF  602,60C
00F84:  CLRF   x0F
00F86:  MOVLW  04
00F88:  MOVWF  x0E
00F8A:  MOVLB  0
00F8C:  RCALL  07F2
00F8E:  MOVFF  02,03
00F92:  MOVF   01,W
00F94:  MOVLB  5
00F96:  ADDWF  xE2,W
00F98:  MOVWF  FE9
00F9A:  MOVF   xE3,W
00F9C:  ADDWFC 02,W
00F9E:  MOVWF  FEA
00FA0:  MOVFF  FEF,5F6
00FA4:  MOVFF  FEC,5F7
00FA8:  MOVFF  FEC,5F8
00FAC:  MOVFF  FEC,5F9
00FB0:  MOVFF  5F6,00
00FB4:  MOVFF  5F7,01
00FB8:  MOVFF  5F8,02
00FBC:  MOVFF  5F9,03
....................       (cosMax < cQ_ch[i]) ? (cosMax=cQ_ch[i]) : (0);
00FC0:  MOVLB  6
00FC2:  CLRF   x0D
00FC4:  MOVFF  602,60C
00FC8:  CLRF   x0F
00FCA:  MOVLW  04
00FCC:  MOVWF  x0E
00FCE:  MOVLB  0
00FD0:  RCALL  07F2
00FD2:  MOVFF  02,03
00FD6:  MOVF   01,W
00FD8:  MOVLB  5
00FDA:  ADDWF  xE4,W
00FDC:  MOVWF  FE9
00FDE:  MOVF   xE5,W
00FE0:  ADDWFC 02,W
00FE2:  MOVWF  FEA
00FE4:  MOVFF  FEF,00
00FE8:  MOVFF  FEC,01
00FEC:  MOVFF  FEC,02
00FF0:  MOVFF  FEC,03
00FF4:  BTFSS  xFD.7
00FF6:  BRA    0FFE
00FF8:  BTFSS  03.7
00FFA:  BRA    1020
00FFC:  BRA    1002
00FFE:  BTFSC  03.7
01000:  BRA    1066
01002:  MOVF   xFD,W
01004:  SUBWF  03,W
01006:  BNC   1066
01008:  BNZ   1020
0100A:  MOVF   xFC,W
0100C:  SUBWF  02,W
0100E:  BNC   1066
01010:  BNZ   1020
01012:  MOVF   xFB,W
01014:  SUBWF  01,W
01016:  BNC   1066
01018:  BNZ   1020
0101A:  MOVF   00,W
0101C:  SUBWF  xFA,W
0101E:  BC    1066
01020:  MOVLB  6
01022:  CLRF   x0D
01024:  MOVFF  602,60C
01028:  CLRF   x0F
0102A:  MOVLW  04
0102C:  MOVWF  x0E
0102E:  MOVLB  0
01030:  CALL   07F2
01034:  MOVFF  02,03
01038:  MOVF   01,W
0103A:  MOVLB  5
0103C:  ADDWF  xE4,W
0103E:  MOVWF  FE9
01040:  MOVF   xE5,W
01042:  ADDWFC 02,W
01044:  MOVWF  FEA
01046:  MOVFF  FEF,5FA
0104A:  MOVFF  FEC,5FB
0104E:  MOVFF  FEC,5FC
01052:  MOVFF  FEC,5FD
01056:  MOVFF  5FA,00
0105A:  MOVFF  5FB,01
0105E:  MOVFF  5FC,02
01062:  MOVFF  5FD,03
....................       (cosMin > cQ_ch[i]) ? (cosMin=cQ_ch[i]) : (0);
01066:  MOVLB  6
01068:  CLRF   x0D
0106A:  MOVFF  602,60C
0106E:  CLRF   x0F
01070:  MOVLW  04
01072:  MOVWF  x0E
01074:  MOVLB  0
01076:  CALL   07F2
0107A:  MOVFF  02,03
0107E:  MOVF   01,W
01080:  MOVLB  5
01082:  ADDWF  xE4,W
01084:  MOVWF  FE9
01086:  MOVF   xE5,W
01088:  ADDWFC 02,W
0108A:  MOVWF  FEA
0108C:  MOVFF  FEF,00
01090:  MOVFF  FEC,01
01094:  MOVFF  FEC,02
01098:  MOVFF  FEC,03
0109C:  BTFSS  03.7
0109E:  BRA    10A8
010A0:  MOVLB  6
010A2:  BTFSS  x01.7
010A4:  BRA    10E2
010A6:  BRA    10AE
010A8:  MOVLB  6
010AA:  BTFSC  x01.7
010AC:  BRA    1128
010AE:  MOVF   03,W
010B0:  SUBWF  x01,W
010B2:  BNC   1128
010B4:  BNZ   10E2
010B6:  MOVF   02,W
010B8:  SUBWF  x00,W
010BA:  BNC   1128
010BC:  BNZ   10E2
010BE:  MOVF   01,W
010C0:  MOVLB  5
010C2:  SUBWF  xFF,W
010C4:  BTFSC  FD8.0
010C6:  BRA    10CC
010C8:  MOVLB  6
010CA:  BRA    1128
010CC:  BTFSC  FD8.2
010CE:  BRA    10D4
010D0:  MOVLB  6
010D2:  BRA    10E2
010D4:  MOVF   xFE,W
010D6:  SUBWF  00,W
010D8:  BTFSS  FD8.0
010DA:  BRA    10E0
010DC:  MOVLB  6
010DE:  BRA    1128
010E0:  MOVLB  6
010E2:  CLRF   x0D
010E4:  MOVFF  602,60C
010E8:  CLRF   x0F
010EA:  MOVLW  04
010EC:  MOVWF  x0E
010EE:  MOVLB  0
010F0:  CALL   07F2
010F4:  MOVFF  02,03
010F8:  MOVF   01,W
010FA:  MOVLB  5
010FC:  ADDWF  xE4,W
010FE:  MOVWF  FE9
01100:  MOVF   xE5,W
01102:  ADDWFC 02,W
01104:  MOVWF  FEA
01106:  MOVFF  FEF,5FE
0110A:  MOVFF  FEC,5FF
0110E:  MOVFF  FEC,600
01112:  MOVFF  FEC,601
01116:  MOVFF  5FE,00
0111A:  MOVFF  5FF,01
0111E:  MOVFF  600,02
01122:  MOVFF  601,03
01126:  MOVLB  6
....................       sumSin+=sQ_ch[i];
01128:  CLRF   x0D
0112A:  MOVFF  602,60C
0112E:  CLRF   x0F
01130:  MOVLW  04
01132:  MOVWF  x0E
01134:  MOVLB  0
01136:  CALL   07F2
0113A:  MOVFF  02,03
0113E:  MOVF   01,W
01140:  MOVLB  5
01142:  ADDWF  xE2,W
01144:  MOVWF  FE9
01146:  MOVF   xE3,W
01148:  ADDWFC 02,W
0114A:  MOVWF  FEA
0114C:  MOVFF  FEF,00
01150:  MOVFF  FEC,01
01154:  MOVFF  FEC,02
01158:  MOVFF  FEC,03
0115C:  MOVF   00,W
0115E:  ADDWF  xEA,F
01160:  MOVF   01,W
01162:  ADDWFC xEB,F
01164:  MOVF   02,W
01166:  ADDWFC xEC,F
01168:  MOVF   03,W
0116A:  ADDWFC xED,F
....................       sumCos+=cQ_ch[i];
0116C:  MOVLB  6
0116E:  CLRF   x0D
01170:  MOVFF  602,60C
01174:  CLRF   x0F
01176:  MOVLW  04
01178:  MOVWF  x0E
0117A:  MOVLB  0
0117C:  CALL   07F2
01180:  MOVFF  02,03
01184:  MOVF   01,W
01186:  MOVLB  5
01188:  ADDWF  xE4,W
0118A:  MOVWF  FE9
0118C:  MOVF   xE5,W
0118E:  ADDWFC 02,W
01190:  MOVWF  FEA
01192:  MOVFF  FEF,00
01196:  MOVFF  FEC,01
0119A:  MOVFF  FEC,02
0119E:  MOVFF  FEC,03
011A2:  MOVF   00,W
011A4:  ADDWF  xEE,F
011A6:  MOVF   01,W
011A8:  ADDWFC xEF,F
011AA:  MOVF   02,W
011AC:  ADDWFC xF0,F
011AE:  MOVF   03,W
011B0:  ADDWFC xF1,F
011B2:  MOVLB  6
011B4:  INCF   x02,F
011B6:  BRA    0E80
....................    }
....................    
....................    // subtract MAX and MIN from sum
....................    sumSin-=(sinMax+sinMin);
011B8:  MOVLB  5
011BA:  MOVF   xF6,W
011BC:  ADDWF  xF2,W
011BE:  MOVWF  00
011C0:  MOVF   xF7,W
011C2:  ADDWFC xF3,W
011C4:  MOVWF  01
011C6:  MOVF   xF8,W
011C8:  ADDWFC xF4,W
011CA:  MOVWF  02
011CC:  MOVF   xF9,W
011CE:  ADDWFC xF5,W
011D0:  MOVWF  03
011D2:  MOVF   00,W
011D4:  SUBWF  xEA,F
011D6:  MOVF   01,W
011D8:  SUBWFB xEB,F
011DA:  MOVF   02,W
011DC:  SUBWFB xEC,F
011DE:  MOVF   03,W
011E0:  SUBWFB xED,F
....................    sumCos-=(cosMax+cosMin);
011E2:  MOVF   xFE,W
011E4:  ADDWF  xFA,W
011E6:  MOVWF  00
011E8:  MOVF   xFF,W
011EA:  ADDWFC xFB,W
011EC:  MOVWF  01
011EE:  MOVLB  6
011F0:  MOVF   x00,W
011F2:  MOVLB  5
011F4:  ADDWFC xFC,W
011F6:  MOVWF  02
011F8:  MOVLB  6
011FA:  MOVF   x01,W
011FC:  MOVLB  5
011FE:  ADDWFC xFD,W
01200:  MOVWF  03
01202:  MOVF   00,W
01204:  SUBWF  xEE,F
01206:  MOVF   01,W
01208:  SUBWFB xEF,F
0120A:  MOVF   02,W
0120C:  SUBWFB xF0,F
0120E:  MOVF   03,W
01210:  SUBWFB xF1,F
....................    
....................    // calc AVG
....................    smData[ch].avgSin = sumSin / (BUFFER_SIZE-2);
01212:  MOVF   xD9,W
01214:  MULLW  09
01216:  MOVF   FF3,W
01218:  MOVLB  6
0121A:  CLRF   x04
0121C:  MOVWF  x03
0121E:  MOVLW  01
01220:  ADDWF  x03,W
01222:  MOVWF  01
01224:  MOVLW  00
01226:  ADDWFC x04,W
01228:  MOVWF  03
0122A:  MOVF   01,W
0122C:  ADDLW  D4
0122E:  MOVWF  FE9
01230:  MOVLW  01
01232:  ADDWFC 03,W
01234:  MOVWF  FEA
01236:  MOVFF  FEA,606
0123A:  MOVFF  FE9,605
0123E:  BCF    FD8.1
01240:  MOVFF  5ED,60A
01244:  MOVFF  5EC,609
01248:  MOVFF  5EB,608
0124C:  MOVFF  5EA,607
01250:  CLRF   x0E
01252:  CLRF   x0D
01254:  CLRF   x0C
01256:  MOVLW  03
01258:  MOVWF  x0B
0125A:  MOVLB  0
0125C:  RCALL  0C68
0125E:  MOVFF  606,FEA
01262:  MOVFF  605,FE9
01266:  MOVFF  00,FEF
0126A:  MOVFF  01,FEC
0126E:  MOVFF  02,FEC
01272:  MOVFF  03,FEC
....................    smData[ch].avgCos = sumCos / (BUFFER_SIZE-2);
01276:  MOVLB  5
01278:  MOVF   xD9,W
0127A:  MULLW  09
0127C:  MOVF   FF3,W
0127E:  MOVLB  6
01280:  CLRF   x04
01282:  MOVWF  x03
01284:  MOVLW  05
01286:  ADDWF  x03,W
01288:  MOVWF  01
0128A:  MOVLW  00
0128C:  ADDWFC x04,W
0128E:  MOVWF  03
01290:  MOVF   01,W
01292:  ADDLW  D4
01294:  MOVWF  FE9
01296:  MOVLW  01
01298:  ADDWFC 03,W
0129A:  MOVWF  FEA
0129C:  MOVFF  FEA,606
012A0:  MOVFF  FE9,605
012A4:  BCF    FD8.1
012A6:  MOVFF  5F1,60A
012AA:  MOVFF  5F0,609
012AE:  MOVFF  5EF,608
012B2:  MOVFF  5EE,607
012B6:  CLRF   x0E
012B8:  CLRF   x0D
012BA:  CLRF   x0C
012BC:  MOVLW  03
012BE:  MOVWF  x0B
012C0:  MOVLB  0
012C2:  RCALL  0C68
012C4:  MOVFF  606,FEA
012C8:  MOVFF  605,FE9
012CC:  MOVFF  00,FEF
012D0:  MOVFF  01,FEC
012D4:  MOVFF  02,FEC
012D8:  MOVFF  03,FEC
012DC:  GOTO   3F34 (RETURN)
.................... }
.................... 
.................... /*****************************************************************************/
.................... /* SENSOR MONITOR task - gets magnetoresistive sensor counts                 */
.................... /* gets two values each time the task is run                                 */
.................... /*****************************************************************************/
.................... void sensor_monitor_task(){
*
03E54:  MOVLB  5
03E56:  CLRF   xD4
03E58:  CLRF   xD3
03E5A:  CLRF   xD2
03E5C:  CLRF   xD1
03E5E:  CLRF   xD8
03E60:  CLRF   xD7
03E62:  CLRF   xD6
03E64:  CLRF   xD5
....................    static int8 ch = 0;
....................    signed int32 sinNew = 0;
....................    signed int32 cosNew = 0;
....................    
....................    if ( (!smData[ch].adcBusy) && smData[ch].dataReady ){
03E66:  MOVLB  1
03E68:  MOVF   xE8,W
03E6A:  MULLW  09
03E6C:  MOVF   FF3,W
03E6E:  MOVLB  5
03E70:  CLRF   xDA
03E72:  MOVWF  xD9
03E74:  MOVLW  D4
03E76:  ADDWF  xD9,W
03E78:  MOVWF  FE9
03E7A:  MOVLW  01
03E7C:  ADDWFC xDA,W
03E7E:  MOVWF  FEA
03E80:  BTFSC  FEF.1
03E82:  BRA    4000
03E84:  MOVLB  1
03E86:  MOVF   xE8,W
03E88:  MULLW  09
03E8A:  MOVF   FF3,W
03E8C:  MOVLB  5
03E8E:  CLRF   xDC
03E90:  MOVWF  xDB
03E92:  MOVLW  D4
03E94:  ADDWF  xDB,W
03E96:  MOVWF  FE9
03E98:  MOVLW  01
03E9A:  ADDWFC xDC,W
03E9C:  MOVWF  FEA
03E9E:  BTFSS  FEF.0
03EA0:  BRA    4000
....................       smData[ch].adcBusy = true;
03EA2:  MOVLB  1
03EA4:  MOVF   xE8,W
03EA6:  MULLW  09
03EA8:  MOVF   FF3,W
03EAA:  MOVLB  5
03EAC:  CLRF   xDA
03EAE:  MOVWF  xD9
03EB0:  MOVLW  D4
03EB2:  ADDWF  xD9,W
03EB4:  MOVWF  FE9
03EB6:  MOVLW  01
03EB8:  ADDWFC xDA,W
03EBA:  MOVWF  FEA
03EBC:  BSF    FEF.1
....................       
....................       sinNew = ads_read_data(ch*2);
03EBE:  BCF    FD8.0
03EC0:  MOVLB  1
03EC2:  RLCF   xE8,W
03EC4:  MOVLB  5
03EC6:  MOVWF  xD9
03EC8:  MOVWF  xDA
03ECA:  MOVLB  0
03ECC:  CALL   0798
03ED0:  MOVFF  03,5D4
03ED4:  MOVFF  02,5D3
03ED8:  MOVFF  01,5D2
03EDC:  MOVFF  00,5D1
....................       cosNew = ads_read_data(ch*2+1);      
03EE0:  BCF    FD8.0
03EE2:  MOVLB  1
03EE4:  RLCF   xE8,W
03EE6:  ADDLW  01
03EE8:  MOVLB  5
03EEA:  MOVWF  xD9
03EEC:  MOVWF  xDA
03EEE:  MOVLB  0
03EF0:  CALL   0798
03EF4:  MOVFF  03,5D8
03EF8:  MOVFF  02,5D7
03EFC:  MOVFF  01,5D6
03F00:  MOVFF  00,5D5
....................       
....................       if (adcFilter){
03F04:  MOVLB  1
03F06:  BTFSS  x63.0
03F08:  BRA    3F38
....................          iqm_ring_buffer(ch, sinNew, cosNew);
03F0A:  MOVFF  1E8,5D9
03F0E:  MOVFF  5D4,5DD
03F12:  MOVFF  5D3,5DC
03F16:  MOVFF  5D2,5DB
03F1A:  MOVFF  5D1,5DA
03F1E:  MOVFF  5D8,5E1
03F22:  MOVFF  5D7,5E0
03F26:  MOVFF  5D6,5DF
03F2A:  MOVFF  5D5,5DE
03F2E:  MOVLB  0
03F30:  GOTO   0D52
....................       }
03F34:  BRA    3FA4
03F36:  MOVLB  1
....................       else{
....................          smData[ch].avgSin = sinNew;
03F38:  MOVF   xE8,W
03F3A:  MULLW  09
03F3C:  MOVF   FF3,W
03F3E:  MOVLB  5
03F40:  CLRF   xDA
03F42:  MOVWF  xD9
03F44:  MOVLW  01
03F46:  ADDWF  xD9,W
03F48:  MOVWF  01
03F4A:  MOVLW  00
03F4C:  ADDWFC xDA,W
03F4E:  MOVWF  03
03F50:  MOVF   01,W
03F52:  ADDLW  D4
03F54:  MOVWF  FE9
03F56:  MOVLW  01
03F58:  ADDWFC 03,W
03F5A:  MOVWF  FEA
03F5C:  MOVFF  5D1,FEF
03F60:  MOVFF  5D2,FEC
03F64:  MOVFF  5D3,FEC
03F68:  MOVFF  5D4,FEC
....................          smData[ch].avgCos = cosNew;
03F6C:  MOVLB  1
03F6E:  MOVF   xE8,W
03F70:  MULLW  09
03F72:  MOVF   FF3,W
03F74:  MOVLB  5
03F76:  CLRF   xDA
03F78:  MOVWF  xD9
03F7A:  MOVLW  05
03F7C:  ADDWF  xD9,W
03F7E:  MOVWF  01
03F80:  MOVLW  00
03F82:  ADDWFC xDA,W
03F84:  MOVWF  03
03F86:  MOVF   01,W
03F88:  ADDLW  D4
03F8A:  MOVWF  FE9
03F8C:  MOVLW  01
03F8E:  ADDWFC 03,W
03F90:  MOVWF  FEA
03F92:  MOVFF  5D5,FEF
03F96:  MOVFF  5D6,FEC
03F9A:  MOVFF  5D7,FEC
03F9E:  MOVFF  5D8,FEC
03FA2:  MOVLB  0
....................       }
....................       
....................       sensor_process_data(ch);
03FA4:  MOVFF  1E8,5D9
03FA8:  GOTO   3098
....................       ch = !ch;
03FAC:  MOVLB  1
03FAE:  MOVF   xE8,F
03FB0:  BZ    3FB6
03FB2:  MOVLW  00
03FB4:  BRA    3FB8
03FB6:  MOVLW  01
03FB8:  MOVWF  xE8
....................       
....................       smData[!ch].dataReady = false;
03FBA:  MOVF   xE8,F
03FBC:  BZ    3FC2
03FBE:  MOVLW  00
03FC0:  BRA    3FC4
03FC2:  MOVLW  01
03FC4:  MULLW  09
03FC6:  MOVF   FF3,W
03FC8:  MOVLB  5
03FCA:  CLRF   xDA
03FCC:  MOVWF  xD9
03FCE:  MOVLW  D4
03FD0:  ADDWF  xD9,W
03FD2:  MOVWF  FE9
03FD4:  MOVLW  01
03FD6:  ADDWFC xDA,W
03FD8:  MOVWF  FEA
03FDA:  BCF    FEF.0
....................       smData[!ch].adcBusy = false;
03FDC:  MOVLB  1
03FDE:  MOVF   xE8,F
03FE0:  BZ    3FE6
03FE2:  MOVLW  00
03FE4:  BRA    3FE8
03FE6:  MOVLW  01
03FE8:  MULLW  09
03FEA:  MOVF   FF3,W
03FEC:  MOVLB  5
03FEE:  CLRF   xDA
03FF0:  MOVWF  xD9
03FF2:  MOVLW  D4
03FF4:  ADDWF  xD9,W
03FF6:  MOVWF  FE9
03FF8:  MOVLW  01
03FFA:  ADDWFC xDA,W
03FFC:  MOVWF  FEA
03FFE:  BCF    FEF.1
....................    }
04000:  MOVLB  0
04002:  GOTO   45B8 (RETURN)
.................... }
.................... /*****************************************************************************/
.................... /* INITIALIZE ADC's                                                          */
.................... /*****************************************************************************/
.................... void setup_external_ADCs(){
*
008A6:  MOVLB  5
008A8:  CLRF   xD1
008AA:  CLRF   xD2
008AC:  CLRF   xD3
008AE:  CLRF   xD4
....................    unsigned int8 rc0=0;
....................    unsigned int8 rc1=0;
....................    unsigned int8 rc2=0;
....................    unsigned int8 rc3=0;
....................    
....................    for (int ch = 0; ch < 4; ch++){
008B0:  CLRF   xD5
008B2:  MOVF   xD5,W
008B4:  SUBLW  03
008B6:  BNC   08EC
....................       rc0=reg0config;
008B8:  MOVLW  30
008BA:  MOVWF  xD1
....................       rc1=reg1config;
008BC:  MOVLW  10
008BE:  MOVWF  xD2
....................       rc2=reg2config;
008C0:  CLRF   xD3
....................       rc3=reg3config;
008C2:  CLRF   xD4
....................       
....................       ADS1220init(ch, rc0, rc1, rc2, rc3);
008C4:  MOVFF  5D5,5D7
008C8:  MOVFF  5D1,5D8
008CC:  MOVFF  5D2,5D9
008D0:  MOVFF  5D3,5DA
008D4:  MOVFF  5D4,5DB
008D8:  MOVLB  0
008DA:  BRA    06CA
....................       delay_ms(100);
008DC:  MOVLW  64
008DE:  MOVLB  5
008E0:  MOVWF  xD7
008E2:  MOVLB  0
008E4:  RCALL  03B8
008E6:  MOVLB  5
008E8:  INCF   xD5,F
008EA:  BRA    08B2
....................    }
....................    
....................    if (adcFilter){
008EC:  MOVLB  1
008EE:  BTFSS  x63.0
008F0:  BRA    0A12
....................       for (int i = 0; i < BUFFER_SIZE; i++){
008F2:  MOVLB  5
008F4:  CLRF   xD6
008F6:  MOVF   xD6,W
008F8:  SUBLW  04
008FA:  BTFSS  FD8.0
008FC:  BRA    0A10
....................          ads_start_conv_all();
008FE:  MOVLB  0
00900:  BRA    0768
....................          delay_ms(50);
00902:  MOVLW  32
00904:  MOVLB  5
00906:  MOVWF  xD7
00908:  MOVLB  0
0090A:  RCALL  03B8
....................          push(sQ_x, &sIn_x, ads_read_data(0));
0090C:  MOVLB  5
0090E:  CLRF   xDA
00910:  MOVLB  0
00912:  RCALL  0798
00914:  MOVFF  03,5DA
00918:  MOVFF  02,5D9
0091C:  MOVFF  01,5D8
00920:  MOVFF  00,5D7
00924:  MOVLW  01
00926:  MOVLB  6
00928:  MOVWF  x04
0092A:  MOVLW  80
0092C:  MOVWF  x03
0092E:  MOVLW  01
00930:  MOVWF  x06
00932:  MOVLW  D0
00934:  MOVWF  x05
00936:  MOVFF  03,60A
0093A:  MOVFF  02,609
0093E:  MOVFF  01,608
00942:  MOVFF  00,607
00946:  MOVLB  0
00948:  RCALL  0840
....................          push(cQ_x, &cIn_x, ads_read_data(1));      
0094A:  MOVLW  01
0094C:  MOVLB  5
0094E:  MOVWF  xDA
00950:  MOVLB  0
00952:  RCALL  0798
00954:  MOVFF  03,5DA
00958:  MOVFF  02,5D9
0095C:  MOVFF  01,5D8
00960:  MOVFF  00,5D7
00964:  MOVLW  01
00966:  MOVLB  6
00968:  MOVWF  x04
0096A:  MOVLW  94
0096C:  MOVWF  x03
0096E:  MOVLW  01
00970:  MOVWF  x06
00972:  MOVLW  D1
00974:  MOVWF  x05
00976:  MOVFF  03,60A
0097A:  MOVFF  02,609
0097E:  MOVFF  01,608
00982:  MOVFF  00,607
00986:  MOVLB  0
00988:  RCALL  0840
....................          push(sQ_y, &sIn_y, ads_read_data(2));
0098A:  MOVLW  02
0098C:  MOVLB  5
0098E:  MOVWF  xDA
00990:  MOVLB  0
00992:  RCALL  0798
00994:  MOVFF  03,5DA
00998:  MOVFF  02,5D9
0099C:  MOVFF  01,5D8
009A0:  MOVFF  00,5D7
009A4:  MOVLW  01
009A6:  MOVLB  6
009A8:  MOVWF  x04
009AA:  MOVLW  A8
009AC:  MOVWF  x03
009AE:  MOVLW  01
009B0:  MOVWF  x06
009B2:  MOVLW  D2
009B4:  MOVWF  x05
009B6:  MOVFF  03,60A
009BA:  MOVFF  02,609
009BE:  MOVFF  01,608
009C2:  MOVFF  00,607
009C6:  MOVLB  0
009C8:  RCALL  0840
....................          push(cQ_y, &cIn_y, ads_read_data(3));      
009CA:  MOVLW  03
009CC:  MOVLB  5
009CE:  MOVWF  xDA
009D0:  MOVLB  0
009D2:  RCALL  0798
009D4:  MOVFF  03,5DA
009D8:  MOVFF  02,5D9
009DC:  MOVFF  01,5D8
009E0:  MOVFF  00,5D7
009E4:  MOVLW  01
009E6:  MOVLB  6
009E8:  MOVWF  x04
009EA:  MOVLW  BC
009EC:  MOVWF  x03
009EE:  MOVLW  01
009F0:  MOVWF  x06
009F2:  MOVLW  D3
009F4:  MOVWF  x05
009F6:  MOVFF  03,60A
009FA:  MOVFF  02,609
009FE:  MOVFF  01,608
00A02:  MOVFF  00,607
00A06:  MOVLB  0
00A08:  RCALL  0840
00A0A:  MOVLB  5
00A0C:  INCF   xD6,F
00A0E:  BRA    08F6
00A10:  MOVLB  1
....................       }
....................    }
00A12:  MOVLB  0
00A14:  GOTO   0A78 (RETURN)
.................... }
.................... 
.................... /*****************************************************************************/
.................... /* INITIALIZE MONITOR -- sets up ADC channels                                */
.................... /*****************************************************************************/
.................... void monitor_init(){
....................    setup_adc_ports(sAN6 | sAN16 | sAN17 | sAN24 | sAN25 | sAN26 | sAN27, NO_ANALOGS_P2, VSS_VDD);
00A18:  MOVLW  00
00A1A:  MOVLB  F
00A1C:  MOVWF  x53
00A1E:  MOVLW  40
00A20:  MOVWF  x0C
00A22:  MOVLW  00
00A24:  MOVWF  x14
00A26:  MOVLW  03
00A28:  MOVWF  x1C
00A2A:  MOVLW  0F
00A2C:  MOVWF  x21
00A2E:  MOVLW  00
00A30:  MOVWF  x29
....................    setup_adc(ADC_CLOCK_INTERNAL | ADC_TAD_MUL_255 | ADC_LEGACY_MODE | ADC_THRESHOLD_INT_DISABLED);
00A32:  MOVLW  08
00A34:  MOVWF  x55
00A36:  CLRF   x56
00A38:  CLRF   x52
00A3A:  SETF   x57
00A3C:  CLRF   F61
00A3E:  MOVLW  94
00A40:  MOVWF  x5B
....................    output_high(EN_EXC);
00A42:  MOVLW  E8
00A44:  MOVWF  F8B
00A46:  BSF    F86.0
....................    set_adc_channel(vMonN15); // internal MUX
00A48:  MOVF   x5A,W
00A4A:  ANDLW  3F
00A4C:  MOVWF  01
00A4E:  MOVLW  06
00A50:  MOVWF  x5A
00A52:  BTFSS  x5B.7
00A54:  BRA    0A64
00A56:  MOVF   01,W
00A58:  SUBLW  06
00A5A:  BZ    0A64
00A5C:  BSF    x5B.0
00A5E:  NOP   
00A60:  BTFSC  x5B.0
00A62:  BRA    0A60
....................    delay_ms(10);
00A64:  MOVLW  0A
00A66:  MOVLB  5
00A68:  MOVWF  xD7
00A6A:  MOVLB  0
00A6C:  RCALL  03B8
....................    read_adc(ADC_START_ONLY);
00A6E:  MOVLB  F
00A70:  BSF    x5B.0
00A72:  NOP   
....................    setup_external_ADCs();
00A74:  MOVLB  0
00A76:  BRA    08A6
....................    intTimeoutReg = sensorSampleRate;
00A78:  MOVLB  1
00A7A:  CLRF   x7F
00A7C:  MOVLW  32
00A7E:  MOVWF  x7E
00A80:  MOVLB  0
00A82:  GOTO   45A4 (RETURN)
.................... }
.................... 
.................... #endif
.................... 
.................... #include <serialport.h>
.................... #ifndef serialPort
.................... #define serialPort
.................... #include <cmdBuffer.h>
.................... #ifndef cmd_buffer
.................... #define cmd_buffer
.................... 
.................... /*****************************************************************************/
.................... /* DIFCS COMMAND BUFFER                                                      */
.................... /* The beginning of a message is signified by an address record. The address */
.................... /* is 4 characters. The first 2 are the hardware identifier (TC - temperature*/
.................... /* controller, DC - difics controller, etc..) The second 2 characters dev-   */
.................... /* ice ID... Valid values are 00 thru 0F. A device ID of FF writes to all    */
.................... /* boards. This might be used to feed angles data to all listeners.          */
.................... /*****************************************************************************/
.................... 
.................... // t,p0,p1,p2,p3,p4,p5,p6
.................... // t is the start character, p0 is the address, p1 is command, p2-6 are params
.................... // these characters used for storing messages
.................... 
.................... #define startChr '~' // start character. Also diagnostic command type
.................... #define diagCmdType startChr
.................... #define endChr '\n'
.................... #define delimiter ','
.................... #define ignoreChr1 '\r'
.................... #define ignoreChr2 ' '
.................... #define noRecordFound (char)0xFF
.................... 
.................... #define numRecords 4
.................... #define numParam 7
.................... #define lenParam 25
.................... 
.................... #define useSerial
.................... //#define useTCPIP
.................... 
.................... typedef enum cmdMode {tcp, ser};
.................... 
.................... // this structure holds a command. This is used by the serial routine as well
.................... // as the TCP routine to store an incoming command + parameters
.................... // in the case of TCP socket id is also passed in this structure
.................... typedef struct cmd 
.................... {
....................    BOOLEAN full;        // if full, command is ready to execute
....................    unsigned int8 chrIndex;
....................    unsigned int8 paramIndex;
....................    unsigned int8 recReadIndex;
....................    unsigned int8 recWriteIndex;
....................    #ifdef useTCPIP
....................    TCP_SOCKET s;              // socket ID for TCP commands 
....................    #endif
....................    char t;
....................    char p[numParam][lenParam];   // only used with ~ type command
.................... };
.................... 
.................... #ifdef useSerial
.................... struct cmd SERcmd[numRecords]; // holds serial command 
.................... unsigned int8 SRI = 0; //usb readindex
.................... unsigned int8 SWI = 0; //usb write index
.................... #endif
.................... 
.................... #ifdef useTCPIP
.................... struct cmd TCPcmd[numRecords]; // holds TCP command
.................... unsigned int8 TRI = 0; //usb readindex
.................... unsigned int8 TWI = 0; //usb write index
.................... #endif
.................... 
.................... char retData[100]; // this is used to hold return data 
.................... 
.................... #ifdef useSerial
.................... /*****************************************************************************/
.................... /* RESET SER COMMAND -- ready for a new command                              */
.................... /*****************************************************************************/
.................... void resetSERcmd(unsigned int8 recNum)
.................... {
....................    if (recNum < numRecords)
00A86:  MOVLB  5
00A88:  MOVF   xD2,W
00A8A:  SUBLW  03
00A8C:  BTFSS  FD8.0
00A8E:  BRA    0C0C
....................    {
....................       for (int i = 0; i <numParam; i ++)
00A90:  CLRF   xD3
00A92:  MOVF   xD3,W
00A94:  SUBLW  06
00A96:  BNC   0AEA
....................       {
....................          SERcmd[recNum].p[i][0] = '\0';
00A98:  MOVLB  6
00A9A:  CLRF   x0D
00A9C:  MOVFF  5D2,60C
00AA0:  CLRF   x0F
00AA2:  MOVLW  B5
00AA4:  MOVWF  x0E
00AA6:  MOVLB  0
00AA8:  RCALL  07F2
00AAA:  MOVFF  02,5D5
00AAE:  MOVFF  01,5D4
00AB2:  MOVLW  06
00AB4:  MOVLB  5
00AB6:  ADDWF  xD4,F
00AB8:  MOVLW  00
00ABA:  ADDWFC xD5,F
00ABC:  MOVLB  6
00ABE:  CLRF   x0D
00AC0:  MOVFF  5D3,60C
00AC4:  CLRF   x0F
00AC6:  MOVLW  19
00AC8:  MOVWF  x0E
00ACA:  MOVLB  0
00ACC:  RCALL  07F2
00ACE:  MOVF   01,W
00AD0:  MOVLB  5
00AD2:  ADDWF  xD4,F
00AD4:  MOVF   02,W
00AD6:  ADDWFC xD5,F
00AD8:  MOVLW  E9
00ADA:  ADDWF  xD4,W
00ADC:  MOVWF  FE9
00ADE:  MOVLW  01
00AE0:  ADDWFC xD5,W
00AE2:  MOVWF  FEA
00AE4:  CLRF   FEF
00AE6:  INCF   xD3,F
00AE8:  BRA    0A92
....................       }
....................       SERcmd[recNum].t = 0;
00AEA:  MOVLB  6
00AEC:  CLRF   x0D
00AEE:  MOVFF  5D2,60C
00AF2:  CLRF   x0F
00AF4:  MOVLW  B5
00AF6:  MOVWF  x0E
00AF8:  MOVLB  0
00AFA:  RCALL  07F2
00AFC:  MOVFF  01,5D4
00B00:  MOVLW  05
00B02:  MOVLB  5
00B04:  ADDWF  01,W
00B06:  MOVWF  01
00B08:  MOVLW  00
00B0A:  ADDWFC 02,W
00B0C:  MOVWF  03
00B0E:  MOVF   01,W
00B10:  ADDLW  E9
00B12:  MOVWF  FE9
00B14:  MOVLW  01
00B16:  ADDWFC 03,W
00B18:  MOVWF  FEA
00B1A:  CLRF   FEF
....................       SERcmd[recNum].chrIndex = 0;
00B1C:  MOVLB  6
00B1E:  CLRF   x0D
00B20:  MOVFF  5D2,60C
00B24:  CLRF   x0F
00B26:  MOVLW  B5
00B28:  MOVWF  x0E
00B2A:  MOVLB  0
00B2C:  RCALL  07F2
00B2E:  MOVFF  01,5D4
00B32:  MOVLW  01
00B34:  MOVLB  5
00B36:  ADDWF  01,W
00B38:  MOVWF  01
00B3A:  MOVLW  00
00B3C:  ADDWFC 02,W
00B3E:  MOVWF  03
00B40:  MOVF   01,W
00B42:  ADDLW  E9
00B44:  MOVWF  FE9
00B46:  MOVLW  01
00B48:  ADDWFC 03,W
00B4A:  MOVWF  FEA
00B4C:  CLRF   FEF
....................       SERcmd[recNum].paramIndex = 0;
00B4E:  MOVLB  6
00B50:  CLRF   x0D
00B52:  MOVFF  5D2,60C
00B56:  CLRF   x0F
00B58:  MOVLW  B5
00B5A:  MOVWF  x0E
00B5C:  MOVLB  0
00B5E:  RCALL  07F2
00B60:  MOVFF  01,5D4
00B64:  MOVLW  02
00B66:  MOVLB  5
00B68:  ADDWF  01,W
00B6A:  MOVWF  01
00B6C:  MOVLW  00
00B6E:  ADDWFC 02,W
00B70:  MOVWF  03
00B72:  MOVF   01,W
00B74:  ADDLW  E9
00B76:  MOVWF  FE9
00B78:  MOVLW  01
00B7A:  ADDWFC 03,W
00B7C:  MOVWF  FEA
00B7E:  CLRF   FEF
....................       SERcmd[recNum].recReadIndex = 0;
00B80:  MOVLB  6
00B82:  CLRF   x0D
00B84:  MOVFF  5D2,60C
00B88:  CLRF   x0F
00B8A:  MOVLW  B5
00B8C:  MOVWF  x0E
00B8E:  MOVLB  0
00B90:  RCALL  07F2
00B92:  MOVFF  01,5D4
00B96:  MOVLW  03
00B98:  MOVLB  5
00B9A:  ADDWF  01,W
00B9C:  MOVWF  01
00B9E:  MOVLW  00
00BA0:  ADDWFC 02,W
00BA2:  MOVWF  03
00BA4:  MOVF   01,W
00BA6:  ADDLW  E9
00BA8:  MOVWF  FE9
00BAA:  MOVLW  01
00BAC:  ADDWFC 03,W
00BAE:  MOVWF  FEA
00BB0:  CLRF   FEF
....................       SERcmd[recNum].recWriteIndex = 0;
00BB2:  MOVLB  6
00BB4:  CLRF   x0D
00BB6:  MOVFF  5D2,60C
00BBA:  CLRF   x0F
00BBC:  MOVLW  B5
00BBE:  MOVWF  x0E
00BC0:  MOVLB  0
00BC2:  RCALL  07F2
00BC4:  MOVFF  01,5D4
00BC8:  MOVLW  04
00BCA:  MOVLB  5
00BCC:  ADDWF  01,W
00BCE:  MOVWF  01
00BD0:  MOVLW  00
00BD2:  ADDWFC 02,W
00BD4:  MOVWF  03
00BD6:  MOVF   01,W
00BD8:  ADDLW  E9
00BDA:  MOVWF  FE9
00BDC:  MOVLW  01
00BDE:  ADDWFC 03,W
00BE0:  MOVWF  FEA
00BE2:  CLRF   FEF
....................       SERcmd[recNum].full = FALSE;
00BE4:  MOVLB  6
00BE6:  CLRF   x0D
00BE8:  MOVFF  5D2,60C
00BEC:  CLRF   x0F
00BEE:  MOVLW  B5
00BF0:  MOVWF  x0E
00BF2:  MOVLB  0
00BF4:  RCALL  07F2
00BF6:  MOVLW  E9
00BF8:  MOVLB  5
00BFA:  ADDWF  01,W
00BFC:  MOVWF  FE9
00BFE:  MOVLW  01
00C00:  ADDWFC 02,W
00C02:  MOVWF  FEA
00C04:  BCF    FEF.0
....................       retData[0] = '\0';
00C06:  MOVLB  4
00C08:  CLRF   xBF
00C0A:  MOVLB  5
....................    }
00C0C:  MOVLB  0
00C0E:  GOTO   0C24 (RETURN)
.................... }
.................... 
.................... /*****************************************************************************/
.................... /* Get next serial read index (SRI)                                          */
.................... /*****************************************************************************/
.................... BOOLEAN getNextSERReadIndex()
.................... {
....................    while (!SERcmd[SRI].full)
....................    {
....................       if (SRI == SWI) return FALSE;
....................       SRI +=1;
....................       if (SRI >= numRecords) SRI=0;
....................    }
....................    return TRUE;
.................... }
.................... 
.................... /*****************************************************************************/
.................... /* Get next serial write index (SWI)                                         */
.................... /*****************************************************************************/
.................... void setNextSERWriteIndex()
.................... {
....................    SWI +=1;
....................    if (SWI >= numRecords) SWI=0;
.................... }
.................... #endif
.................... 
.................... #ifdef useTCPIP
.................... /*****************************************************************************/
.................... /* RESET TCP COMMAND -- ready for a new command                              */
.................... /*****************************************************************************/
.................... void resetTCPcmd(unsigned int8 recNum)
.................... {
....................    if(recNum < numRecords)
....................    {
....................       for (int i = 0; i <numParam; i ++)
....................       {
....................          TCPcmd[recNum].p[i][0] = '\0';
....................       }
....................       TCPcmd[recNum].t = 0;
....................       TCPcmd[recNum].chrIndex = 0;
....................       TCPcmd[recNum].paramIndex = 0;
....................       TCPcmd[recNum].full = FALSE;
....................    }
.................... }
.................... 
.................... /*****************************************************************************/
.................... /* Get next TCP read index (TRI)                                             */
.................... /*****************************************************************************/
.................... BOOLEAN getNextTCPReadIndex()
.................... {
....................    while (!TCPcmd[TRI].full)
....................    {
....................       if (TRI == TWI) return FALSE;
....................       TRI +=1;
....................       if (TRI >= numRecords) TRI=0;
....................    }
....................    return TRUE;
.................... }
.................... 
.................... /*****************************************************************************/
.................... /* Get next TCP write index (TWI)                                            */
.................... /*****************************************************************************/
.................... void setNextTCPWriteIndex()
.................... {
....................    TWI +=1;
....................    if (TWI >= numRecords) TWI=0;
.................... }
.................... #endif
.................... #endif
.................... 
.................... 
.................... #include <io.h>
.................... #ifndef IO
.................... #define IO
.................... 
.................... #use FIXED_IO( A_outputs=PIN_A5,PIN_A4 )
.................... #use FIXED_IO( B_outputs=PIN_B7,PIN_B6,PIN_B5,PIN_B4,PIN_B3,PIN_B1,PIN_B0 )
.................... #use FIXED_IO( C_outputs=PIN_C6,PIN_C5,PIN_C3,PIN_C2 )
.................... #use FIXED_IO( D_outputs=PIN_D7,PIN_D6,PIN_D5 )
.................... #use FIXED_IO( E_outputs=PIN_E2,PIN_E1,PIN_E0 )
.................... 
.................... #define A0           PIN_A0
.................... #define A1           PIN_A1
.................... #define A2           PIN_A2
.................... #define A3           PIN_A3
.................... #define _CS_ACC1     PIN_A4
.................... #define _CS_ACC0     PIN_A5
.................... #define MON_N15V     PIN_A6
.................... 
.................... #define _CS_YCOS     PIN_B0
.................... #define SCLK_B       PIN_B1
.................... #define MISO_B       PIN_B2
.................... #define MOSI_B       PIN_B3
.................... #define INV_HVX      PIN_B4
.................... #define INV_HVY      PIN_B5
.................... 
.................... #define MON_200V     PIN_C0
.................... #define MON_3V6X     PIN_C1
.................... #define MOSI_A       PIN_C2
.................... #define SCLK_A       PIN_C3
.................... #define MISO_A       PIN_C4
.................... #define TX_ENABLE    PIN_C5
.................... #define TX_PIN       PIN_C6
.................... #define RX_PIN       PIN_C7
.................... 
.................... #define MON_5V6      PIN_D0
.................... #define MON_5VA      PIN_D1
.................... #define MON_3V3D     PIN_D2
.................... #define MON_3V3A     PIN_D3
.................... #define RS485_FLT    PIN_D4
.................... #define _CS_XSIN     PIN_D5
.................... #define _CS_XCOS     PIN_D6
.................... #define _CS_YSIN     PIN_D7
.................... 
.................... #define EN_EXC       PIN_E0
.................... #define _SYNC_Y      PIN_E1
.................... #define _SYNC_X      PIN_E2
.................... 
.................... #pin_select U1TX = PIN_C6
.................... #pin_select U1RX = PIN_C7
.................... 
.................... // initialization states
.................... #define portA_reset 0x00
.................... #define portB_reset 0x00
.................... #define portC_reset 0x00
.................... #define portD_reset 0x00
.................... #define portE_reset 0x00
.................... 
.................... #define portA_pullups 0xFF
.................... #define portB_pullups 0x00
.................... #define portC_pullups 0x00
.................... #define portD_pullups 0xFF
.................... #define portE_pullups 0x00
.................... 
.................... /*****************************************************************************/
.................... /* INITIALIZE IO                                                             */
.................... /*****************************************************************************/
.................... void IO_init()
.................... {
....................    output_a(portA_reset);
....................    output_b(portB_reset);
....................    output_c(portC_reset);
....................    output_d(portD_reset);
....................    output_e(portE_reset);
....................    
....................    port_a_pullups(portA_pullups);
....................    port_b_pullups(portB_pullups);
....................    port_c_pullups(portC_pullups);
....................    port_d_pullups(portD_pullups);
....................    port_e_pullups(portE_pullups);
....................    
....................    set_analog_pins(MON_N15V, MON_200V, MON_5V6, MON_5VA, MON_3V6X, MON_3V3A, MON_3V3D);
.................... }
.................... 
.................... #endif
.................... 
.................... 
.................... #define use_RS485 // adds RX enable pin//
.................... 
.................... #define oneByteCmdTestValue 128
.................... #define UART_BUFFER_SIZE 60
.................... #define UART_EOT_CHAR1 0x0D //Carriage Return
.................... #define UART_EOT_CHAR2 0x0A //Line Feed
.................... #define UART_SOT_CHAR  '~' // START CHARACTER
.................... #define line_turnaround_char 0xFF
.................... 
.................... #bit UART_TXBuffer_Empty = 0x0FAC.1
.................... 
.................... char UART_BUFFER[UART_BUFFER_SIZE] = {0};
.................... unsigned int8 UART_WR_PTR = 0;
.................... unsigned int8 UART_RD_PTR = 0;
.................... boolean BYTES_AVAILABLE= FALSE;
.................... 
.................... #ifdef DEBUG_1
.................... #use rs232(ICD, DISABLE_INTS, stream=ICD_STREAM)
.................... #endif
.................... 
.................... #ifdef use_RS485
.................... #use rs232(baud=baudRate, UART1, stream=SERIAL, ERRORS)
*
000BC:  MOVLB  E
000BE:  BTFSS  xC8.5
000C0:  BRA    00BE
000C2:  MOVFF  F9C,561
000C6:  MOVLB  5
000C8:  MOVFF  F98,01
000CC:  BTFSS  x61.1
000CE:  BRA    00D4
000D0:  BCF    F9C.4
000D2:  BSF    F9C.4
000D4:  MOVLB  0
000D6:  GOTO   00FE (RETURN)
.................... //!#use rs232(baud=baudRate, xmit=TX_PIN, rcv=RX_PIN, stream=SERIAL, ERRORS)
.................... #else
.................... #use rs232(baud=baudRate, xmit=TX_PIN, rcv=RX_PIN, stream=SERIAL)
.................... #endif
.................... 
.................... // Message format: [SOT]addr ,cmd, arg1, arg2, arg3[EOT]} 
.................... // arguments are optional
.................... /*****************************************************************************/
.................... /*****************************************************************************/
.................... /* FUNCTIONS START HERE                                                      */
.................... /*****************************************************************************/
.................... /*****************************************************************************/
.................... 
.................... /*****************************************************************************/
.................... /* SERIAL PRINTOUT                                                           */
.................... /*****************************************************************************/
.................... void serial_out(char* printBuffer){
....................     output_high(TX_ENABLE);
*
04390:  MOVLW  93
04392:  MOVWF  F89
04394:  BSF    F84.5
....................     delay_us(200);
04396:  MOVLW  C8
04398:  MOVLB  5
0439A:  MOVWF  xDD
0439C:  MOVLB  0
0439E:  CALL   0680
....................     
....................     fprintf(SERIAL, "%s\n", printBuffer);
043A2:  MOVFF  5D2,FEA
043A6:  MOVFF  5D1,FE9
043AA:  BRA    4364
043AC:  MOVLW  0A
043AE:  MOVLB  E
043B0:  BTFSS  xC8.4
043B2:  BRA    43B0
043B4:  MOVWF  F99
....................     delay_us(200);
043B6:  MOVLW  C8
043B8:  MOVLB  5
043BA:  MOVWF  xDD
043BC:  MOVLB  0
043BE:  CALL   0680
....................     
....................     output_low(TX_ENABLE);
043C2:  MOVLW  93
043C4:  MOVWF  F89
043C6:  BCF    F84.5
043C8:  GOTO   46C6 (RETURN)
.................... }
.................... 
.................... //!void icd_out(char* printBuffer){
.................... //!    fprintf(ICD_STREAM, "%s\n", printBuffer);
.................... //!}
.................... 
.................... /*****************************************************************************/
.................... /* SERIAL PORT ISR                                                           */
.................... /*****************************************************************************/
.................... #INT_RDA
.................... void RX_isr() {           
*
000DA:  MOVLB  0
....................     while (kbhit(SERIAL)) {
000DC:  MOVLB  E
000DE:  BTFSS  xC8.5
000E0:  BRA    0122
....................         UART_BUFFER[UART_WR_PTR]=fgetc(SERIAL);
000E2:  CLRF   03
000E4:  MOVLB  5
000E6:  MOVF   x5F,W
000E8:  ADDLW  23
000EA:  MOVWF  FE9
000EC:  MOVLW  05
000EE:  ADDWFC 03,W
000F0:  MOVWF  FEA
000F2:  MOVFF  FEA,633
000F6:  MOVFF  FE9,632
000FA:  MOVLB  0
000FC:  BRA    00BC
000FE:  MOVFF  633,FEA
00102:  MOVFF  632,FE9
00106:  MOVFF  01,FEF
....................         UART_WR_PTR +=1;
0010A:  MOVLW  01
0010C:  MOVLB  5
0010E:  ADDWF  x5F,F
....................         if (UART_WR_PTR>=UART_BUFFER_SIZE) UART_WR_PTR=0;
00110:  MOVF   x5F,W
00112:  SUBLW  3B
00114:  BC    0118
00116:  CLRF   x5F
....................         BYTES_AVAILABLE=TRUE;
00118:  MOVLB  1
0011A:  BSF    x63.1
0011C:  MOVLB  0
0011E:  BRA    00DC
00120:  MOVLB  E
....................     }
00122:  BCF    xC8.5
00124:  MOVLB  0
00126:  GOTO   006E
.................... }
.................... 
.................... /*****************************************************************************/
.................... /* Get character from buffer                                                 */
.................... /*****************************************************************************/
.................... char getchFromBuffer()
.................... {
....................    char data = UART_BUFFER[UART_RD_PTR];
....................    UART_RD_PTR +=1;
....................    if (UART_RD_PTR>=UART_BUFFER_SIZE) UART_RD_PTR=0;
....................    if (UART_RD_PTR == UART_WR_PTR) BYTES_AVAILABLE=FALSE;
....................    return data;
.................... }
.................... 
.................... /*****************************************************************************/
.................... /* Serial Task transfers bytes to command buffer                             */
.................... /*****************************************************************************/
.................... void serial_task()
.................... {
....................    while(BYTES_AVAILABLE && SERcmd[SWI].full==FALSE)
....................    {  
....................       output_high(TX_ENABLE);
....................       unsigned int8 rxChar = getchFromBuffer();
....................       if (rxChar == ignoreChr1 || rxChar == ignoreChr2)
....................       {
....................       }
....................       else if (rxChar == UART_SOT_CHAR)
....................       {
....................          resetSERcmd(SWI);
....................          SERcmd[SWI].t = rxChar;
....................       }
....................       else if (rxChar >= oneByteCmdTestValue)
....................       {
....................          resetSERcmd(SWI);
....................          SERcmd[SWI].t = rxChar;
....................          SERcmd[SWI].full = TRUE;
....................          setNextSERWriteIndex();
....................       }
....................       else if (rxChar == UART_EOT_CHAR2)
....................       {
....................          SERcmd[SWI].full = TRUE;
....................          SERcmd[SWI].recWriteIndex = SERcmd[SWI].paramIndex;
....................          SERcmd[SWI].chrIndex = 0;
....................          SERcmd[SWI].paramIndex = 0;
....................          setNextSERWriteIndex();
....................       }
....................       else if (rxChar == delimiter)
....................       {
....................          if (SERcmd[SWI].paramIndex < numParam-1)
....................          {
....................             SERcmd[SWI].paramIndex +=1;
....................             SERcmd[SWI].chrIndex = 0;
....................          }
....................          else
....................          {
....................             resetSERcmd(SWI); // exceed number of params... reset capture
....................             serial_out(retData);
....................          }
....................       }
....................       
....................       else
....................       {
....................          if (SERcmd[SWI].chrIndex < lenParam)
....................          {
....................             SERcmd[SWI].p[SERcmd[SWI].paramIndex][SERcmd[SWI].chrIndex] = rxChar;
....................             SERcmd[SWI].chrIndex += 1;
....................             SERcmd[SWI].p[SERcmd[SWI].paramIndex][SERcmd[SWI].chrIndex] = '\0';
....................          }
....................          else
....................          {
....................             resetSERcmd(SWI); // exceed number of characters... reset capture
....................             serial_out(retData);
....................          }
....................       }
....................    }
....................    output_low(TX_ENABLE);
.................... }
....................            
.................... /*****************************************************************************/
.................... /* serialInit ROUTINE  - Sets up serial port                                 */
.................... /*****************************************************************************/ 
.................... void serial_init()
.................... {
....................    for (int i = 0; i < numRecords; i++) 
*
00C12:  MOVLB  5
00C14:  CLRF   xD1
00C16:  MOVF   xD1,W
00C18:  SUBLW  03
00C1A:  BNC   0C2A
....................    {
....................       resetSERcmd(i);
00C1C:  MOVFF  5D1,5D2
00C20:  MOVLB  0
00C22:  BRA    0A86
00C24:  MOVLB  5
00C26:  INCF   xD1,F
00C28:  BRA    0C16
....................    }
....................    enable_interrupts(INT_RDA);
00C2A:  MOVLB  E
00C2C:  BSF    xC0.5
00C2E:  MOVLB  0
00C30:  GOTO   45A8 (RETURN)
.................... }
.................... 
.................... 
.................... #endif
.................... 
.................... #include <eventTimer.h>
.................... #ifndef timeout
.................... #define timeout
.................... #include <parameters.h>
.................... #ifndef parameters
.................... #define parameters
.................... 
.................... //#define use_ext_eeprom
.................... 
.................... /*****************************************************************************/
.................... /*****************************************************************************/
.................... /* PARAMETERS                                                                */
.................... /* Global parameters used by all routines                                    */
.................... /* These defaults are defined below. On first boot, they will be stored in   */
.................... /* EEProm. On subsequent boots, they will be reloaded from EEProm. Any       */
.................... /* configuation changes will be changed in EEprom, hence will be restored on */
.................... /* subsequent boot. All params start at page boundaries!!                    */
.................... /*****************************************************************************/
.................... /*****************************************************************************/
.................... #include <stddef.h>
.................... #include <stdlib.h>
.................... 
.................... typedef enum channelMap {chX, chY}; // Piezo channels
.................... typedef enum channelMode {MANUAL, MAGSNS}; // Voltage or Magnetic Sensor Control
.................... 
.................... /*****************************************************************************/
.................... /* CAT24C04 EEProm --- page size = 16 bytes, Write when LSB=0 Read when LSB=1*/
.................... /*****************************************************************************/
.................... #ifdef use_ext_eeprom
.................... #define EE_Slave_Addr 0xA0
.................... #define writeProtectPin EE_WP
.................... #define pageSize 16
.................... // EEProm is on 12C bus 1
.................... #use i2c(master, fast, sda=PIN_C4, scl=PIN_C3, FORCE_HW, STREAM=EEPROM)
.................... #endif
.................... 
.................... /*****************************************************************************/
.................... /*****************************************************************************/
.................... /* FUNCTIONS PROTOTYPES START HERE                                           */
.................... /*****************************************************************************/
.................... /*****************************************************************************/
.................... #ifdef use_ext_eeprom
.................... void ee_send_start(unsigned int16 address, BOOLEAN read);
.................... #endif
.................... void ee_save_reg(unsigned int8 *reg, unsigned int16 eeLocation, unsigned int8 length);
.................... void ee_load_reg(unsigned int8 *reg, unsigned int16 eeLocation, unsigned int8 length);
.................... void params_save_to_ee(void);
.................... void params_load_from_ee(void);
.................... void params_init(void);
.................... void params_invalidate(void);
.................... 
.................... /*****************************************************************************/
.................... /*****************************************************************************/
.................... /* PARAMETERS START HERE. All Params should have an EEPROM address that is   */
.................... /* at the start of an EERPOM page.                                           */ 
.................... /*****************************************************************************/
.................... /*****************************************************************************/
.................... 
.................... /*****************************************************************************/
.................... /* PID Parameters                                                            */
.................... /*****************************************************************************/
.................... #define pid_params_ee_addr 0
.................... #define pid_params_length 128  // length in bytes
.................... struct pidParams
.................... {
....................     float kP;      // proportional gain
....................     float kI;      // integral gain
....................     float kD;      // derivative gain
....................     float SP;      // set point-- desired output
....................     float PV;      // process variable-- measured output
....................     float PVold;   // oldPV value  
....................     float CV;      // control variable-- output -- 0 to 100%
....................     float I;       // integral value
....................     float maxSP;   // Max setpoint in microns
....................     float minSP;   // Min setpoint in microns
.................... }PID[2] = {
....................    //  P     I     D
....................     {0.01,   0.3,  0.1, 0,0,0,0,0,0,0}, 
....................     {0.01,   0.3,  0.1, 0,0,0,0,0,0,0}
....................     };
.................... 
.................... /*****************************************************************************/
.................... /* Output Channel Map                                                        */
.................... /*****************************************************************************/
.................... #define channel_map_ee_addr 128
.................... #define channel_map_length 2  // length in bytes
.................... channelMap chMap[2] = {chX, chY};
.................... 
.................... // @FLAG
.................... // #define op_upper_bound 63  // CRYO
.................... // #define op_lower_bound -63 // CRYO
.................... 
.................... #define op_upper_bound 63  // AMBIENT 
.................... #define op_lower_bound -12 // AMBIENT
.................... 
.................... //!#define op_upper_bound 100  // FULL 
.................... //!#define op_lower_bound -100 // FULL
.................... 
.................... 
.................... /*****************************************************************************/
.................... /* Input Channel Mode                                                        */
.................... /*****************************************************************************/
.................... #define channel_mode_ee_addr 144
.................... #define channel_mode_length 2  // length in bytes
.................... channelMode chMode[2] = {MANUAL, MANUAL};
.................... 
.................... /*****************************************************************************/
.................... /* ADC Calibration Constants                                                 */
.................... /*****************************************************************************/
.................... #define adc_cal_params_ee_addr 160
.................... #define adc_cal_params_length 32  // length in bytes
.................... struct adcCalParms
.................... {
....................    float sinOS;
....................    float cosOS;
....................    float sinGain;
....................    float cosGain;
.................... } adcCal[2] = {
....................                 {0,0,1,1},
....................                 {0,0,1,1}
....................               };
.................... 
.................... /*****************************************************************************/
.................... /* Sensor Calibration Constants                                              */
.................... /*****************************************************************************/
.................... #define sensor_cal_params_ee_addr 192
.................... #define sensor_cal_params_length 48  // length in bytes
.................... struct sensorCalParams
.................... {
....................    float c0;
....................    float c1;
....................    float c2;
....................    float c3;
....................    float c4;
....................    float c5;
.................... } sensorCal[2] = {
....................                     {0,-0.97687,0,0,0,0},  // @FLAG: Switched Channels
....................                     {0,-0.99084,0,0,0,0}
....................                  };
.................... 
.................... // fifth order polynomial constants
.................... 
.................... /*****************************************************************************/
.................... /* Monitor Calibration Constants                                             */
.................... /*****************************************************************************/
.................... #define mon_cal_params_ee_addr 240
.................... #define mon_cal_params_length 56  // length in bytes
.................... struct monCalParams
.................... {
....................    float vN15[2];  // offset and gain
....................    float v200[2];
....................    float v5V6[2];
....................    float v5VA[2];
....................    float v3V6X[2];
....................    float v3V3A[2];
....................    float v3V3D[2];
....................    
.................... }monCal = {
....................    {0, -0.02245509}, 
....................    {0,   0.2127659}, 
....................    {0, 0.008432515}, 
....................    {0, 0.008173486}, 
....................    {0, 0.009655914}, 
....................    {0, 0.007094828}, 
....................    {0, 0.007081720}
.................... };
.................... 
.................... /*****************************************************************************/
.................... /* PARAMS Valid                                                              */
.................... /*****************************************************************************/
.................... #define invalidate 0xFF
.................... #define isValid 0xAA
.................... #define params_valid_ee_addr 320
.................... #define params_valid_length 1  // length in bytes
.................... char paramsValid = isValid;
.................... // if data returns isValid from EEPROM then EEPROM has valid data
.................... 
.................... /*****************************************************************************/
.................... /*****************************************************************************/
.................... /* VOLATILE PARAMETERS                                                       */
.................... /*****************************************************************************/
.................... /*****************************************************************************/
.................... struct mv
.................... {
....................    float vN15; // internal voltages
....................    float v200;
....................    float v5V6;
....................    float v5VA;
....................    float v3V6X;
....................    float v3V3A;
....................    float v3V3D;
.................... }monitorVals = {0,0,0,0,0,0,0};
.................... 
.................... struct adcV
.................... {
....................    float sinRaw;           // adc raw count data
....................    float cosRaw;           // adc raw count data
....................    float sinCounts;        // calibrated counts
....................    float cosCounts;        // calibrated counts
....................    float sinLast;          // previous sin data
....................    float cosLast;          // previous cos data
....................    float p0;               // mid-pole position in microns
....................    signed int8  npoles;    // number of poles passed
....................    float pReal;            // real position in microns
....................    float pHome;            // Home position in microns
....................    BOOLEAN homeFlag;       // Flag to trigger the homing routine
.................... }adcVals[2] = 
.................... {
....................    {0,0,0,0,0,0,0,0,0,0,FALSE},
....................    {0,0,0,0,0,0,0,0,0,0,FALSE}
.................... };
.................... 
.................... BOOLEAN adcFilter = FALSE;
.................... 
.................... struct dacV
.................... {
....................     BOOLEAN invV;
....................     unsigned int16 ipVal;
....................     float opPcnt;
....................    
.................... }dacVals[2] = 
.................... {
....................     {FALSE,0,0},
....................     {FALSE,0,0}
.................... };
.................... 
.................... // used with timeouts
.................... unsigned int32 timeoutReg0 = 0; //All timers are defined in milliseconds, 
.................... unsigned int32 timeoutReg1 = 0; //with a resolution of 10ms
.................... unsigned int32 timeoutReg2 = 0;
.................... unsigned int16 intTimeoutReg = 0; // interrupting use for more precise timing
.................... /*****************************************************************************/
.................... /*****************************************************************************/
.................... /* FUNCTIONS START HERE                                                      */
.................... /*****************************************************************************/
.................... /*****************************************************************************/
.................... 
.................... /*****************************************************************************/
.................... /* ee_send_start --- sends the start messsage to the eeprom and set the addr */
.................... /*****************************************************************************/
.................... #ifdef use_ext_eeprom
.................... void ee_send_start(unsigned int16 address, BOOLEAN read = TRUE)
.................... {
....................    unsigned int8 romAddr = (unsigned int8)(address & 0x00FF);
....................    unsigned int8 slaveAddr = EE_Slave_Addr;
....................    #ifdef writeProtectPin
....................    output_low(writeProtectPin); // for write operations, clr WP pin
....................    #endif
....................    if (address > 0xFF) // if address > 8 bits
....................    { //add upper address bits (LSB of slave reserved are R/!W) 
....................       slaveAddr |= (unsigned int8)((address >> 7) & 0x000E) ;   
....................    }
....................    i2c_start(EEPROM);   // send start pulse on bus
....................    delay_ms(1);
....................    i2c_write(EEPROM, slaveAddr); // send slave address with R/!W clr (WRITE)
....................    i2c_write(EEPROM, romAddr); // rom address
....................    if (read) 
....................    {
....................       slaveAddr |= 0x01; // set the read bit
....................       delay_ms(1);
....................       i2c_start(EEPROM);
....................       delay_ms(1);
....................       i2c_write (EEPROM, slaveAddr); // send slave with R!W set (READ)
....................       #ifdef writeProtectPin
....................       output_high(writeProtectPin); // for read operations, set WP pin
....................       #endif
....................    }
.................... }
.................... #endif
.................... /*****************************************************************************/
.................... /* SAVE REGISTER TO EEPROM                                                   */
.................... /* note all registers are saved at a page boundary for simplicity            */
.................... /*****************************************************************************/
.................... void ee_save_reg(unsigned int8 *reg, unsigned int16 eeLocation, unsigned int8 length)
.................... #ifdef use_ext_eeprom
.................... {
....................    int pageCnt = length/pageSize;
....................    int lastPageLength = length%pageSize;
....................    
....................    int i = 0; // number of pages to write
....................    int j = 0; // number of characters to write on last page
....................    
....................    for ( i = 0; i < pageCnt ; i++)  // pages to writes
....................    {
....................       ee_send_start(eeLocation, FALSE); // start the right
....................       for (j = 0; j < pageSize ; j++) // write 16 bytes (one page)
....................       {
....................          i2c_write(EEPROM, *(reg + j + (i * pageSize)));
....................          delay_ms(1);
....................       }
....................       i2c_stop();
....................       delay_ms(5);
....................       eeLocation += pageSize;
....................    }   
....................    if (lastPageLength > 0)
....................    {
....................       ee_send_start(eeLocation, FALSE);
....................       for (j = 0; j < lastPageLength; j++)
....................       {
....................          i2c_write(EEPROM, *(reg + j + (i * pageSize)));
....................          delay_ms(1);
....................       }
....................    }   
....................    i2c_stop(EEPROM);
....................    delay_ms(3);
....................    #ifdef writeProtectPin
....................    output_high(writeProtectPin); // for read operations, set WP pin
....................    #endif  
.................... }
.................... #else
.................... {
....................    int i = 0;
....................    for (i = 0; i < length; i++)
....................    {
....................       write_eeprom(eeLocation+i, *(reg + i));
....................    }
.................... }
.................... #endif
.................... 
.................... /*****************************************************************************/
.................... /* READ REGISTER FROM EEPROM                                                 */
.................... /*****************************************************************************/
.................... void ee_load_reg(unsigned int8 *reg, unsigned int16 eeLocation, unsigned int8 length)
.................... #ifdef use_ext_eeprom
.................... {
....................    ee_send_start(eeLocation, TRUE);
....................    for (int i = 0; i < length; i++)
....................    {
....................       unsigned int8 data = i2c_read(EEPROM,1); // acknoledge after each byte
....................       *(reg + i) = data;
....................    }
....................    i2c_read(EEPROM,0); // dummy read without acknowlege
....................    delay_ms(1);
....................    i2c_stop(EEPROM); // end page read, must preceed stop
....................    delay_ms(1);
.................... }
.................... #else
.................... {
....................    int i = 0;
....................    for (i = 0; i < length; i++)
....................    {
....................       *(reg + i) = read_eeprom(eeLocation+i);
....................    }
.................... }
.................... #endif
.................... 
.................... /*****************************************************************************/
.................... /* SAVE TO ALL PARAMS EEPROM                                                 */
.................... /*****************************************************************************/
.................... void params_save_to_ee()
.................... {
....................    ee_save_reg(&PID, pid_params_ee_addr, pid_params_length);
....................    delay_ms(1);
....................    ee_save_reg(&chMap, channel_map_ee_addr, channel_map_length);
....................    delay_ms(1);
....................    ee_save_reg(&chMode, channel_mode_ee_addr, channel_mode_length);
....................    delay_ms(1);
....................    ee_save_reg(&adcCal, adc_cal_params_ee_addr, adc_cal_params_length);
....................    delay_ms(1);
....................    ee_save_reg(&sensorCal, sensor_cal_params_ee_addr, sensor_cal_params_length);
....................    delay_ms(1);
....................    ee_save_reg(&monCal, mon_cal_params_ee_addr, mon_cal_params_length);
....................    delay_ms(1);
....................    ee_save_reg(&paramsValid, params_valid_ee_addr, params_valid_length);
....................    delay_ms(1);
.................... }
.................... /*****************************************************************************/
.................... /* LOAD ALL PARAMS FROM EEPROM                                               */
.................... /*****************************************************************************/
.................... void params_load_from_ee()
.................... {
....................    ee_load_reg(&PID, pid_params_ee_addr, pid_params_length);
....................    ee_load_reg(&chMap, channel_map_ee_addr, channel_map_length);
....................    ee_load_reg(&chMode, channel_mode_ee_addr, channel_mode_length);
....................    ee_load_reg(&adcCal, adc_cal_params_ee_addr, adc_cal_params_length);
....................    ee_load_reg(&sensorCal, sensor_cal_params_ee_addr, sensor_cal_params_length);
....................    ee_load_reg(&monCal, mon_cal_params_ee_addr, mon_cal_params_length);
....................    ee_load_reg(&paramsValid, params_valid_ee_addr, params_valid_length);
.................... }
.................... 
.................... /*****************************************************************************/
.................... /* INITIALIZE PARAMS -- Include in main... Run on boot                       */
.................... /*****************************************************************************/
.................... void params_init()
.................... {
....................    ee_load_reg(&paramsValid, params_valid_ee_addr, params_valid_length);
....................    delay_ms(1);
....................    if (paramsValid != isValid)
....................    {
....................       paramsValid = isValid;
....................       params_save_to_ee(); // saves the base parameters on first boot
....................    }
....................    else
....................    {
....................       params_load_from_ee();
....................    }
.................... }
.................... 
.................... /*****************************************************************************/
.................... /* INVALIDATE PARAMS -- Restarting will load defauts                         */
.................... /*****************************************************************************/
.................... void params_invalidate()
.................... {
....................    paramsValid = invalidate;
....................    ee_save_reg(&paramsValid, params_valid_ee_addr, params_valid_length);
.................... }
.................... 
.................... #endif
.................... 
.................... /*****************************************************************************/
.................... /*****************************************************************************/           
.................... /* Global timers used by all routnes                                         */
.................... /* timeoutReg0-2 are used for timeouts. Other routines monitor the value of  */
.................... /* intTimeoutReg. On boot, they will be loaded from EEProm. Any              */
.................... /* configuration changes will be changed in EEprom, hence will be restored on*/
.................... /* subsequent boot.                                                          */
.................... /*****************************************************************************/
.................... /*****************************************************************************/
.................... 
.................... /*****************************************************************************/
.................... /* Register definitions                                                      */
.................... /*****************************************************************************/
.................... //!unsigned int32 timeoutReg0 = 0; //All timers are defined in milliseconds, 
.................... //!unsigned int32 timeoutReg1 = 0; //with a resolution of 10ms
.................... //!unsigned int32 timeoutReg2 = 0;
.................... //!unsigned int16 intTimeoutReg = 0; // interrupting use for more precise timing
.................... unsigned int32 timeCounter = 0;
.................... 
.................... /*****************************************************************************/
.................... /* TIMEOUT_INIT initializes the timer                                        */
.................... /*****************************************************************************/
.................... void event_timer_init()
.................... {        
....................    disable_interrupts(INT_TIMER1);
00C34:  MOVLB  E
00C36:  BCF    xC1.0
....................    setup_timer_1(T1_INTERNAL|T1_DIV_BY_1);
00C38:  MOVLW  01
00C3A:  MOVWF  FD1
00C3C:  MOVLW  07
00C3E:  MOVWF  FCE
00C40:  CLRF   FCF
00C42:  CLRF   FD0
....................    timeoutReg0 = 0;  // clear all the timers
00C44:  MOVLB  1
00C46:  CLRF   x75
00C48:  CLRF   x74
00C4A:  CLRF   x73
00C4C:  CLRF   x72
....................    timeoutReg1 = 0;
00C4E:  CLRF   x79
00C50:  CLRF   x78
00C52:  CLRF   x77
00C54:  CLRF   x76
....................    timeoutReg2 = 0;
00C56:  CLRF   x7D
00C58:  CLRF   x7C
00C5A:  CLRF   x7B
00C5C:  CLRF   x7A
.................... //!   intTimeoutReg = 50;
....................    enable_interrupts(INT_TIMER1);
00C5E:  MOVLB  E
00C60:  BSF    xC1.0
00C62:  MOVLB  0
00C64:  GOTO   45AC (RETURN)
.................... }
.................... 
.................... /*****************************************************************************/
.................... /* TIMEOUT INTERRUPT decrements the timeout registers every second           */
.................... /*****************************************************************************/
.................... #INT_TIMER1
.................... void TIMER1_isr(void) 
*
0024E:  MOVLB  0
.................... {
....................    set_timer1(0x0BDB); // load timer register to allow 10 millisecond interupts
00250:  MOVLW  0B
00252:  MOVWF  FCD
00254:  MOVLW  DB
00256:  MOVWF  FCC
00258:  NOP   
....................    if (timeoutReg0 > 10) timeoutReg0 -= 10; else timeoutReg0 = 0;
0025A:  MOVLB  1
0025C:  MOVF   x75,F
0025E:  BNZ   026E
00260:  MOVF   x74,F
00262:  BNZ   026E
00264:  MOVF   x73,F
00266:  BNZ   026E
00268:  MOVF   x72,W
0026A:  SUBLW  0A
0026C:  BC    027C
0026E:  MOVLW  0A
00270:  SUBWF  x72,F
00272:  MOVLW  00
00274:  SUBWFB x73,F
00276:  SUBWFB x74,F
00278:  SUBWFB x75,F
0027A:  BRA    0284
0027C:  CLRF   x75
0027E:  CLRF   x74
00280:  CLRF   x73
00282:  CLRF   x72
....................    if (timeoutReg1 > 10) timeoutReg1 -= 10; else timeoutReg1 = 0;
00284:  MOVF   x79,F
00286:  BNZ   0296
00288:  MOVF   x78,F
0028A:  BNZ   0296
0028C:  MOVF   x77,F
0028E:  BNZ   0296
00290:  MOVF   x76,W
00292:  SUBLW  0A
00294:  BC    02A4
00296:  MOVLW  0A
00298:  SUBWF  x76,F
0029A:  MOVLW  00
0029C:  SUBWFB x77,F
0029E:  SUBWFB x78,F
002A0:  SUBWFB x79,F
002A2:  BRA    02AC
002A4:  CLRF   x79
002A6:  CLRF   x78
002A8:  CLRF   x77
002AA:  CLRF   x76
....................    if (timeoutReg2 > 10) timeoutReg2 -= 10; else timeoutReg2 = 0;
002AC:  MOVF   x7D,F
002AE:  BNZ   02BE
002B0:  MOVF   x7C,F
002B2:  BNZ   02BE
002B4:  MOVF   x7B,F
002B6:  BNZ   02BE
002B8:  MOVF   x7A,W
002BA:  SUBLW  0A
002BC:  BC    02CC
002BE:  MOVLW  0A
002C0:  SUBWF  x7A,F
002C2:  MOVLW  00
002C4:  SUBWFB x7B,F
002C6:  SUBWFB x7C,F
002C8:  SUBWFB x7D,F
002CA:  BRA    02D4
002CC:  CLRF   x7D
002CE:  CLRF   x7C
002D0:  CLRF   x7B
002D2:  CLRF   x7A
....................    if (intTimeoutReg != 0) // INTERRUPTING TIMER
002D4:  MOVF   x7E,F
002D6:  BNZ   02DC
002D8:  MOVF   x7F,F
002DA:  BZ    0318
....................    {
....................       timeCounter+=10;
002DC:  MOVLW  0A
002DE:  MOVLB  5
002E0:  ADDWF  x64,F
002E2:  MOVLW  00
002E4:  ADDWFC x65,F
002E6:  ADDWFC x66,F
002E8:  ADDWFC x67,F
....................       if (timeCounter >= intTimeoutReg)
002EA:  MOVF   x67,F
002EC:  BNZ   0308
002EE:  MOVF   x66,F
002F0:  BNZ   0308
002F2:  MOVLB  1
002F4:  MOVF   x7F,W
002F6:  MOVLB  5
002F8:  SUBWF  x65,W
002FA:  BNC   0316
002FC:  BNZ   0308
002FE:  MOVLB  1
00300:  MOVF   x7E,W
00302:  MOVLB  5
00304:  SUBWF  x64,W
00306:  BNC   0316
....................       {
....................          sensor_monitor_interrupt_task();
00308:  MOVLB  0
0030A:  BRA    01B2
....................          timeCounter = 0;
0030C:  MOVLB  5
0030E:  CLRF   x67
00310:  CLRF   x66
00312:  CLRF   x65
00314:  CLRF   x64
00316:  MOVLB  1
....................       }
....................    }
.................... }
.................... 
.................... #endif
.................... 
.................... 
00318:  MOVLB  E
0031A:  BCF    xC9.0
0031C:  MOVLB  0
0031E:  GOTO   006E
.................... #define DEBUG_1
.................... 
.................... void main()
*
043CC:  CLRF   FF8
043CE:  BCF    FF2.5
043D0:  BSF    07.7
043D2:  MOVLB  E
043D4:  MOVLW  55
043D6:  MOVWF  x9B
043D8:  MOVLW  AA
043DA:  MOVWF  x9B
043DC:  BCF    x9B.0
043DE:  MOVLW  17
043E0:  MOVWF  xB0
043E2:  MOVLW  09
043E4:  MOVWF  x8A
043E6:  MOVLW  0A
043E8:  MOVWF  x8B
043EA:  MOVLW  11
043EC:  MOVWF  xEB
043EE:  MOVLW  12
043F0:  MOVWF  xED
043F2:  MOVLW  09
043F4:  MOVWF  xF8
043F6:  MOVLW  55
043F8:  MOVWF  x9B
043FA:  MOVLW  AA
043FC:  MOVWF  x9B
043FE:  BSF    x9B.0
04400:  CLRF   xD8
04402:  CLRF   xD5
04404:  CLRF   xD7
04406:  MOVLW  08
04408:  MOVWF  xD9
0440A:  MOVLW  60
0440C:  MOVWF  xD3
0440E:  MOVLW  AA
04410:  MOVLB  0
04412:  MOVWF  xFA
04414:  MOVLB  1
04416:  BCF    x63.0
04418:  CLRF   x75
0441A:  CLRF   x74
0441C:  CLRF   x73
0441E:  CLRF   x72
04420:  CLRF   x79
04422:  CLRF   x78
04424:  CLRF   x77
04426:  CLRF   x76
04428:  CLRF   x7D
0442A:  CLRF   x7C
0442C:  CLRF   x7B
0442E:  CLRF   x7A
04430:  CLRF   x7F
04432:  CLRF   x7E
04434:  MOVLB  E
04436:  BCF    x91.5
04438:  MOVLW  00
0443A:  MOVWF  x90
0443C:  MOVLW  03
0443E:  MOVWF  x8E
04440:  MOVLW  2A
04442:  MOVWF  x91
04444:  MOVLW  04
04446:  MOVWF  F88
04448:  MOVWF  F88
0444A:  MOVWF  F88
0444C:  MOVLB  1
0444E:  CLRF   xD0
04450:  CLRF   xD1
04452:  CLRF   xD2
04454:  CLRF   xD3
04456:  MOVLB  4
04458:  CLRF   xBD
0445A:  CLRF   xBE
0445C:  MOVLB  5
0445E:  CLRF   x5F
04460:  CLRF   x60
04462:  MOVLB  1
04464:  BCF    x63.1
04466:  MOVLB  5
04468:  CLRF   x61
0446A:  BSF    F9E.3
0446C:  MOVLW  7C
0446E:  MOVWF  F9A
04470:  MOVLW  00
04472:  MOVWF  F9B
04474:  MOVLW  A6
04476:  MOVWF  F9D
04478:  MOVLW  90
0447A:  MOVWF  F9C
0447C:  CLRF   x63
0447E:  CLRF   x62
04480:  CLRF   x67
04482:  CLRF   x66
04484:  CLRF   x65
04486:  CLRF   x64
04488:  MOVLB  F
0448A:  CLRF   x0C
0448C:  CLRF   x14
0448E:  CLRF   x1C
04490:  CLRF   x21
04492:  CLRF   x29
04494:  CLRF   x35
04496:  CLRF   x36
04498:  CLRF   x37
0449A:  CLRF   x34
0449C:  CLRF   x31
0449E:  CLRF   x32
044A0:  CLRF   x33
044A2:  CLRF   x30
044A4:  BRA    454C
044A6:  DATA 02,00
044A8:  DATA 1A,00
044AA:  DATA 00,0C
044AC:  DATA 00,20
044AE:  DATA 78,23
044B0:  DATA D7,0A
044B2:  DATA 7D,19
044B4:  DATA 99,9A
044B6:  DATA 7B,4C
044B8:  DATA CC,CD
044BA:  DATA 1C,C0
044BC:  DATA 00,0C
044BE:  DATA 80,78
044C0:  DATA 23,D7
044C2:  DATA 0A,7D
044C4:  DATA 19,99
044C6:  DATA 9A,7B
044C8:  DATA 4C,CC
044CA:  DATA CD,1C
044CC:  DATA C0,00
044CE:  DATA 01,80
044D0:  DATA 02,09
044D2:  DATA C0,00
044D4:  DATA 05,80
044D6:  DATA 7F,00
044D8:  DATA 00,00
044DA:  DATA 7F,0B
044DC:  DATA C0,00
044DE:  DATA 05,80
044E0:  DATA 7F,00
044E2:  DATA 00,00
044E4:  DATA 7F,07
044E6:  DATA C0,00
044E8:  DATA 04,80
044EA:  DATA 7E,FA
044EC:  DATA 14,27
044EE:  DATA 14,C0
044F0:  DATA 00,04
044F2:  DATA 80,7E
044F4:  DATA FD,A7
044F6:  DATA B1,14
044F8:  DATA C0,00
044FA:  DATA 04,80
044FC:  DATA 79,B7
044FE:  DATA F3,BD
04500:  DATA 04,C0
04502:  DATA 00,04
04504:  DATA 80,7C
04506:  DATA 59,DF
04508:  DATA 4E,04
0450A:  DATA C0,00
0450C:  DATA 04,80
0450E:  DATA 78,0A
04510:  DATA 28,88
04512:  DATA 04,C0
04514:  DATA 00,04
04516:  DATA 80,78
04518:  DATA 05,EA
0451A:  DATA 16,04
0451C:  DATA C0,00
0451E:  DATA 04,80
04520:  DATA 78,1E
04522:  DATA 33,D7
04524:  DATA 04,C0
04526:  DATA 00,04
04528:  DATA 80,77
0452A:  DATA 68,7B
0452C:  DATA BB,04
0452E:  DATA C0,00
04530:  DATA 04,80
04532:  DATA 77,68
04534:  DATA 0D,C6
04536:  DATA 68,40
04538:  DATA FB,00
0453A:  DATA 0E,41
0453C:  DATA 64,00
0453E:  DATA 15,41
04540:  DATA D4,00
04542:  DATA 3C,45
04544:  DATA 23,00
04546:  DATA 01,05
04548:  DATA 68,00
0454A:  DATA 00,00
0454C:  MOVLW  00
0454E:  MOVWF  FF8
04550:  MOVLW  44
04552:  MOVWF  FF7
04554:  MOVLW  A6
04556:  MOVWF  FF6
04558:  TBLRD*+
0455A:  MOVF   FF5,W
0455C:  MOVWF  00
0455E:  XORLW  00
04560:  BZ    4588
04562:  TBLRD*+
04564:  MOVF   FF5,W
04566:  MOVWF  01
04568:  BTFSC  FE8.7
0456A:  BRA    4576
0456C:  ANDLW  3F
0456E:  MOVWF  FEA
04570:  TBLRD*+
04572:  MOVFF  FF5,FE9
04576:  BTFSC  01.6
04578:  TBLRD*+
0457A:  BTFSS  01.6
0457C:  TBLRD*+
0457E:  MOVFF  FF5,FEE
04582:  DCFSNZ 00,F
04584:  BRA    4558
04586:  BRA    457A
04588:  CLRF   FF8
0458A:  MOVLB  5
0458C:  CLRF   x6A
0458E:  MOVLW  64
04590:  MOVWF  x69
04592:  CLRF   x6C
04594:  CLRF   x6B
.................... {
....................     int16 loopDelay = 100;
....................     int16 debugCounter = 0;
....................    
....................     char pBuff[100];
....................     
....................     IO_init();                    // set up IO 
04596:  MOVLB  0
04598:  GOTO   0322
....................     params_init();                // load parameters
0459C:  GOTO   05CA
....................     monitor_init();               // initialize internal ADC for voltage and current telemetry
045A0:  GOTO   0A18
....................     serial_init();                // setup the serial port
045A4:  GOTO   0C12
....................     event_timer_init();
045A8:  GOTO   0C34
....................     enable_interrupts(GLOBAL);
045AC:  MOVLW  C0
045AE:  IORWF  FF2,F
....................     
....................     while(TRUE)
....................     {
....................         pBuff[0] = '\0';
045B0:  MOVLB  5
045B2:  CLRF   x6D
....................         
....................         // internal_monitor_task();   //Update monitored voltage and currents etc
....................         sensor_monitor_task();     //get magnetoresistive sensor data
045B4:  MOVLB  0
045B6:  BRA    3E54
....................       
....................         // serial_task();             
....................         // command_handler_task();    //execute commands
....................         
....................         #ifdef DEBUG_1
....................         if (debugCounter >= 0){
....................             static int8 ch = 0;
....................             sprintf(pBuff+strlen(pBuff), "%u,%.0f,%.0f;", ch+1, adcVals[ch].sinCounts, adcVals[ch].cosCounts);
045B8:  MOVLW  05
045BA:  MOVLB  5
045BC:  MOVWF  xD2
045BE:  MOVLW  6D
045C0:  MOVWF  xD1
045C2:  MOVLB  0
045C4:  BRA    4006
045C6:  MOVF   01,W
045C8:  ADDLW  6D
045CA:  MOVLB  5
045CC:  MOVWF  xD1
045CE:  MOVLW  05
045D0:  ADDWFC 02,W
045D2:  MOVWF  xD2
045D4:  MOVLW  01
045D6:  ADDWF  x68,W
045D8:  MOVWF  xD3
045DA:  MOVF   x68,W
045DC:  MULLW  26
045DE:  MOVF   FF3,W
045E0:  CLRF   xD5
045E2:  MOVWF  xD4
045E4:  MOVLW  08
045E6:  ADDWF  xD4,W
045E8:  MOVWF  01
045EA:  MOVLW  00
045EC:  ADDWFC xD5,W
045EE:  MOVWF  03
045F0:  MOVF   01,W
045F2:  ADDLW  17
045F4:  MOVWF  FE9
045F6:  MOVLW  01
045F8:  ADDWFC 03,W
045FA:  MOVWF  FEA
045FC:  MOVFF  FEF,5D4
04600:  MOVFF  FEC,5D5
04604:  MOVFF  FEC,5D6
04608:  MOVFF  FEC,5D7
0460C:  MOVF   x68,W
0460E:  MULLW  26
04610:  MOVF   FF3,W
04612:  CLRF   xD9
04614:  MOVWF  xD8
04616:  MOVLW  0C
04618:  ADDWF  xD8,W
0461A:  MOVWF  01
0461C:  MOVLW  00
0461E:  ADDWFC xD9,W
04620:  MOVWF  03
04622:  MOVF   01,W
04624:  ADDLW  17
04626:  MOVWF  FE9
04628:  MOVLW  01
0462A:  ADDWFC 03,W
0462C:  MOVWF  FEA
0462E:  MOVFF  FEF,5D8
04632:  MOVFF  FEC,5D9
04636:  MOVFF  FEC,5DA
0463A:  MOVFF  FEC,5DB
0463E:  MOVFF  5D2,563
04642:  MOVFF  5D1,562
04646:  MOVFF  5D3,5DC
0464A:  MOVLW  1B
0464C:  MOVWF  xDD
0464E:  MOVLB  0
04650:  BRA    4060
04652:  MOVLW  2C
04654:  MOVLB  5
04656:  MOVWF  xE9
04658:  MOVLB  0
0465A:  RCALL  4040
0465C:  MOVLW  89
0465E:  MOVWF  FE9
04660:  MOVFF  5D7,5DF
04664:  MOVFF  5D6,5DE
04668:  MOVFF  5D5,5DD
0466C:  MOVFF  5D4,5DC
04670:  MOVLB  5
04672:  CLRF   xE0
04674:  MOVLB  0
04676:  RCALL  41BA
04678:  MOVLW  2C
0467A:  MOVLB  5
0467C:  MOVWF  xE9
0467E:  MOVLB  0
04680:  RCALL  4040
04682:  MOVLW  89
04684:  MOVWF  FE9
04686:  MOVFF  5DB,5DF
0468A:  MOVFF  5DA,5DE
0468E:  MOVFF  5D9,5DD
04692:  MOVFF  5D8,5DC
04696:  MOVLB  5
04698:  CLRF   xE0
0469A:  MOVLB  0
0469C:  RCALL  41BA
0469E:  MOVLW  3B
046A0:  MOVLB  5
046A2:  MOVWF  xE9
046A4:  MOVLB  0
046A6:  RCALL  4040
....................             ch = !ch;
046A8:  MOVLB  5
046AA:  MOVF   x68,F
046AC:  BZ    46B2
046AE:  MOVLW  00
046B0:  BRA    46B4
046B2:  MOVLW  01
046B4:  MOVWF  x68
....................             debugCounter = 0;
046B6:  CLRF   x6C
046B8:  CLRF   x6B
....................         }else debugCounter++;
....................         serial_out(pBuff);
046BA:  MOVLW  05
046BC:  MOVWF  xD2
046BE:  MOVLW  6D
046C0:  MOVWF  xD1
046C2:  MOVLB  0
046C4:  BRA    4390
....................         #endif
....................       
....................         delay_ms(loopDelay);
046C6:  MOVFF  56A,5D1
046CA:  MOVLB  5
046CC:  INCF   xD1,F
046CE:  DECF   xD1,F
046D0:  BTFSC  FD8.2
046D2:  BRA    46E0
046D4:  SETF   xD7
046D6:  MOVLB  0
046D8:  CALL   03B8
046DC:  MOVLB  5
046DE:  BRA    46CE
046E0:  MOVFF  569,5D7
046E4:  MOVLB  0
046E6:  CALL   03B8
046EA:  BRA    45B0
....................     }
.................... }
046EC:  SLEEP 

Configuration Fuses:
   Word  1: FF8C   NOEXTOSC RSTOSC_HFINTRC_64MHZ NOCLKOUT CKS FCMEN
   Word  2: FFFD   MCLR PUT NOLPBOR BROWNOUT BORV19 ZCDDIS PPS1WAY STVREN NODEBUG NOXINST
   Word  3: FF9F   WDTSW NOWDT WDTWIN_SW WDTCLK_SW
   Word  4: DFFF   NOWRT NOWRTC NOWRTB NOWRTD SCANE NOLVP
   Word  5: FFFF   NOPROTECT NOCPD
   Word  6: FFFF   NOEBTR NOEBTRB
